
kernel.elf:     file format elf64-littleriscv


Disassembly of section .text:

0000000080200000 <_entry>:
    80200000:	00019117          	auipc	sp,0x19
    80200004:	34010113          	addi	sp,sp,832 # 80219340 <stack_top>
    80200008:	6511                	lui	a0,0x4
    8020000a:	4585                	li	a1,1
    8020000c:	02b50533          	mul	a0,a0,a1
    80200010:	912a                	add	sp,sp,a0
    80200012:	4e8050ef          	jal	802054fa <main>

0000000080200016 <spin>:
    80200016:	a001                	j	80200016 <spin>

0000000080200018 <uart_putc>:
    80200018:	10000737          	lui	a4,0x10000
    8020001c:	0715                	addi	a4,a4,5 # 10000005 <_entry-0x701ffffb>
    8020001e:	00074783          	lbu	a5,0(a4)
    80200022:	0207f793          	andi	a5,a5,32
    80200026:	dfe5                	beqz	a5,8020001e <uart_putc+0x6>
    80200028:	100007b7          	lui	a5,0x10000
    8020002c:	00a78023          	sb	a0,0(a5) # 10000000 <_entry-0x70200000>
    80200030:	8082                	ret

0000000080200032 <uart_puts>:
    80200032:	00054683          	lbu	a3,0(a0) # 4000 <_entry-0x801fc000>
    80200036:	c28d                	beqz	a3,80200058 <uart_puts+0x26>
    80200038:	10000737          	lui	a4,0x10000
    8020003c:	10000637          	lui	a2,0x10000
    80200040:	0715                	addi	a4,a4,5 # 10000005 <_entry-0x701ffffb>
    80200042:	0505                	addi	a0,a0,1
    80200044:	00074783          	lbu	a5,0(a4)
    80200048:	0207f793          	andi	a5,a5,32
    8020004c:	dfe5                	beqz	a5,80200044 <uart_puts+0x12>
    8020004e:	00d60023          	sb	a3,0(a2) # 10000000 <_entry-0x70200000>
    80200052:	00054683          	lbu	a3,0(a0)
    80200056:	f6f5                	bnez	a3,80200042 <uart_puts+0x10>
    80200058:	8082                	ret

000000008020005a <console_putc>:
    8020005a:	bf7d                	j	80200018 <uart_putc>

000000008020005c <console_puts>:
    8020005c:	1141                	addi	sp,sp,-16
    8020005e:	e022                	sd	s0,0(sp)
    80200060:	e406                	sd	ra,8(sp)
    80200062:	842a                	mv	s0,a0
    80200064:	00054503          	lbu	a0,0(a0)
    80200068:	c519                	beqz	a0,80200076 <console_puts+0x1a>
    8020006a:	0405                	addi	s0,s0,1
    8020006c:	fadff0ef          	jal	80200018 <uart_putc>
    80200070:	00044503          	lbu	a0,0(s0)
    80200074:	f97d                	bnez	a0,8020006a <console_puts+0xe>
    80200076:	60a2                	ld	ra,8(sp)
    80200078:	6402                	ld	s0,0(sp)
    8020007a:	0141                	addi	sp,sp,16
    8020007c:	8082                	ret

000000008020007e <print_number>:
    8020007e:	7139                	addi	sp,sp,-64
    80200080:	fc06                	sd	ra,56(sp)
    80200082:	f822                	sd	s0,48(sp)
    80200084:	f426                	sd	s1,40(sp)
    80200086:	c609                	beqz	a2,80200090 <print_number+0x12>
    80200088:	40a006bb          	negw	a3,a0
    8020008c:	00054463          	bltz	a0,80200094 <print_number+0x16>
    80200090:	0005069b          	sext.w	a3,a0
    80200094:	2581                	sext.w	a1,a1
    80200096:	00810893          	addi	a7,sp,8
    8020009a:	4801                	li	a6,0
    8020009c:	4e25                	li	t3,9
    8020009e:	a011                	j	802000a2 <print_number+0x24>
    802000a0:	86be                	mv	a3,a5
    802000a2:	02b6f73b          	remuw	a4,a3,a1
    802000a6:	8442                	mv	s0,a6
    802000a8:	2805                	addiw	a6,a6,1
    802000aa:	0ff77793          	zext.b	a5,a4
    802000ae:	0307831b          	addiw	t1,a5,48
    802000b2:	0577879b          	addiw	a5,a5,87
    802000b6:	0ff7f793          	zext.b	a5,a5
    802000ba:	00ee4463          	blt	t3,a4,802000c2 <print_number+0x44>
    802000be:	0ff37793          	zext.b	a5,t1
    802000c2:	00f88023          	sb	a5,0(a7)
    802000c6:	02b6d7bb          	divuw	a5,a3,a1
    802000ca:	0885                	addi	a7,a7,1
    802000cc:	fcb6fae3          	bgeu	a3,a1,802000a0 <print_number+0x22>
    802000d0:	c219                	beqz	a2,802000d6 <print_number+0x58>
    802000d2:	02054263          	bltz	a0,802000f6 <print_number+0x78>
    802000d6:	003c                	addi	a5,sp,8
    802000d8:	943e                	add	s0,s0,a5
    802000da:	fff78493          	addi	s1,a5,-1
    802000de:	00044503          	lbu	a0,0(s0)
    802000e2:	147d                	addi	s0,s0,-1
    802000e4:	f77ff0ef          	jal	8020005a <console_putc>
    802000e8:	fe941be3          	bne	s0,s1,802000de <print_number+0x60>
    802000ec:	70e2                	ld	ra,56(sp)
    802000ee:	7442                	ld	s0,48(sp)
    802000f0:	74a2                	ld	s1,40(sp)
    802000f2:	6121                	addi	sp,sp,64
    802000f4:	8082                	ret
    802000f6:	02080793          	addi	a5,a6,32
    802000fa:	978a                	add	a5,a5,sp
    802000fc:	02d00713          	li	a4,45
    80200100:	fee78423          	sb	a4,-24(a5)
    80200104:	8442                	mv	s0,a6
    80200106:	bfc1                	j	802000d6 <print_number+0x58>

0000000080200108 <print_ptr>:
    80200108:	7179                	addi	sp,sp,-48
    8020010a:	ec26                	sd	s1,24(sp)
    8020010c:	84aa                	mv	s1,a0
    8020010e:	03000513          	li	a0,48
    80200112:	f406                	sd	ra,40(sp)
    80200114:	f022                	sd	s0,32(sp)
    80200116:	e84a                	sd	s2,16(sp)
    80200118:	e44e                	sd	s3,8(sp)
    8020011a:	f41ff0ef          	jal	8020005a <console_putc>
    8020011e:	07800513          	li	a0,120
    80200122:	f39ff0ef          	jal	8020005a <console_putc>
    80200126:	03c00413          	li	s0,60
    8020012a:	49a5                	li	s3,9
    8020012c:	5971                	li	s2,-4
    8020012e:	0084d7b3          	srl	a5,s1,s0
    80200132:	00f7f713          	andi	a4,a5,15
    80200136:	03070513          	addi	a0,a4,48
    8020013a:	00e9f463          	bgeu	s3,a4,80200142 <print_ptr+0x3a>
    8020013e:	05770513          	addi	a0,a4,87
    80200142:	3471                	addiw	s0,s0,-4
    80200144:	f17ff0ef          	jal	8020005a <console_putc>
    80200148:	ff2413e3          	bne	s0,s2,8020012e <print_ptr+0x26>
    8020014c:	70a2                	ld	ra,40(sp)
    8020014e:	7402                	ld	s0,32(sp)
    80200150:	64e2                	ld	s1,24(sp)
    80200152:	6942                	ld	s2,16(sp)
    80200154:	69a2                	ld	s3,8(sp)
    80200156:	6145                	addi	sp,sp,48
    80200158:	8082                	ret

000000008020015a <printf>:
    8020015a:	7119                	addi	sp,sp,-128
    8020015c:	f822                	sd	s0,48(sp)
    8020015e:	f4be                	sd	a5,104(sp)
    80200160:	fc06                	sd	ra,56(sp)
    80200162:	e4ae                	sd	a1,72(sp)
    80200164:	e8b2                	sd	a2,80(sp)
    80200166:	ecb6                	sd	a3,88(sp)
    80200168:	f0ba                	sd	a4,96(sp)
    8020016a:	f8c2                	sd	a6,112(sp)
    8020016c:	fcc6                	sd	a7,120(sp)
    8020016e:	842a                	mv	s0,a0
    80200170:	00054503          	lbu	a0,0(a0)
    80200174:	00bc                	addi	a5,sp,72
    80200176:	e43e                	sd	a5,8(sp)
    80200178:	c12d                	beqz	a0,802001da <printf+0x80>
    8020017a:	f426                	sd	s1,40(sp)
    8020017c:	f04a                	sd	s2,32(sp)
    8020017e:	ec4e                	sd	s3,24(sp)
    80200180:	02500493          	li	s1,37
    80200184:	49d5                	li	s3,21
    80200186:	00008917          	auipc	s2,0x8
    8020018a:	65690913          	addi	s2,s2,1622 # 802087dc <etext+0x17dc>
    8020018e:	0a951463          	bne	a0,s1,80200236 <printf+0xdc>
    80200192:	00144783          	lbu	a5,1(s0)
    80200196:	0a978363          	beq	a5,s1,8020023c <printf+0xe2>
    8020019a:	f9d7879b          	addiw	a5,a5,-99
    8020019e:	0ff7f793          	zext.b	a5,a5
    802001a2:	00f9e763          	bltu	s3,a5,802001b0 <printf+0x56>
    802001a6:	078a                	slli	a5,a5,0x2
    802001a8:	97ca                	add	a5,a5,s2
    802001aa:	439c                	lw	a5,0(a5)
    802001ac:	97ca                	add	a5,a5,s2
    802001ae:	8782                	jr	a5
    802001b0:	00007517          	auipc	a0,0x7
    802001b4:	e6850513          	addi	a0,a0,-408 # 80207018 <etext+0x18>
    802001b8:	ea5ff0ef          	jal	8020005c <console_puts>
    802001bc:	00144503          	lbu	a0,1(s0)
    802001c0:	e9bff0ef          	jal	8020005a <console_putc>
    802001c4:	4529                	li	a0,10
    802001c6:	e95ff0ef          	jal	8020005a <console_putc>
    802001ca:	0405                	addi	s0,s0,1
    802001cc:	00144503          	lbu	a0,1(s0)
    802001d0:	0405                	addi	s0,s0,1
    802001d2:	fd55                	bnez	a0,8020018e <printf+0x34>
    802001d4:	74a2                	ld	s1,40(sp)
    802001d6:	7902                	ld	s2,32(sp)
    802001d8:	69e2                	ld	s3,24(sp)
    802001da:	70e2                	ld	ra,56(sp)
    802001dc:	7442                	ld	s0,48(sp)
    802001de:	4501                	li	a0,0
    802001e0:	6109                	addi	sp,sp,128
    802001e2:	8082                	ret
    802001e4:	67a2                	ld	a5,8(sp)
    802001e6:	4601                	li	a2,0
    802001e8:	45c1                	li	a1,16
    802001ea:	4388                	lw	a0,0(a5)
    802001ec:	07a1                	addi	a5,a5,8
    802001ee:	e43e                	sd	a5,8(sp)
    802001f0:	e8fff0ef          	jal	8020007e <print_number>
    802001f4:	bfd9                	j	802001ca <printf+0x70>
    802001f6:	67a2                	ld	a5,8(sp)
    802001f8:	6388                	ld	a0,0(a5)
    802001fa:	07a1                	addi	a5,a5,8
    802001fc:	e43e                	sd	a5,8(sp)
    802001fe:	c521                	beqz	a0,80200246 <printf+0xec>
    80200200:	e5dff0ef          	jal	8020005c <console_puts>
    80200204:	b7d9                	j	802001ca <printf+0x70>
    80200206:	67a2                	ld	a5,8(sp)
    80200208:	6388                	ld	a0,0(a5)
    8020020a:	07a1                	addi	a5,a5,8
    8020020c:	e43e                	sd	a5,8(sp)
    8020020e:	efbff0ef          	jal	80200108 <print_ptr>
    80200212:	bf65                	j	802001ca <printf+0x70>
    80200214:	67a2                	ld	a5,8(sp)
    80200216:	4605                	li	a2,1
    80200218:	45a9                	li	a1,10
    8020021a:	4388                	lw	a0,0(a5)
    8020021c:	07a1                	addi	a5,a5,8
    8020021e:	e43e                	sd	a5,8(sp)
    80200220:	e5fff0ef          	jal	8020007e <print_number>
    80200224:	b75d                	j	802001ca <printf+0x70>
    80200226:	67a2                	ld	a5,8(sp)
    80200228:	0007c503          	lbu	a0,0(a5)
    8020022c:	07a1                	addi	a5,a5,8
    8020022e:	e43e                	sd	a5,8(sp)
    80200230:	e2bff0ef          	jal	8020005a <console_putc>
    80200234:	bf59                	j	802001ca <printf+0x70>
    80200236:	e25ff0ef          	jal	8020005a <console_putc>
    8020023a:	bf49                	j	802001cc <printf+0x72>
    8020023c:	02500513          	li	a0,37
    80200240:	e1bff0ef          	jal	8020005a <console_putc>
    80200244:	b759                	j	802001ca <printf+0x70>
    80200246:	00007517          	auipc	a0,0x7
    8020024a:	dca50513          	addi	a0,a0,-566 # 80207010 <etext+0x10>
    8020024e:	bf4d                	j	80200200 <printf+0xa6>

0000000080200250 <panic>:
    80200250:	1141                	addi	sp,sp,-16
    80200252:	e022                	sd	s0,0(sp)
    80200254:	842a                	mv	s0,a0
    80200256:	00007517          	auipc	a0,0x7
    8020025a:	dd250513          	addi	a0,a0,-558 # 80207028 <etext+0x28>
    8020025e:	e406                	sd	ra,8(sp)
    80200260:	dfdff0ef          	jal	8020005c <console_puts>
    80200264:	8522                	mv	a0,s0
    80200266:	df7ff0ef          	jal	8020005c <console_puts>
    8020026a:	4529                	li	a0,10
    8020026c:	defff0ef          	jal	8020005a <console_putc>
    80200270:	a001                	j	80200270 <panic+0x20>

0000000080200272 <clear_screen>:
    80200272:	1141                	addi	sp,sp,-16
    80200274:	00007517          	auipc	a0,0x7
    80200278:	dbc50513          	addi	a0,a0,-580 # 80207030 <etext+0x30>
    8020027c:	e406                	sd	ra,8(sp)
    8020027e:	ddfff0ef          	jal	8020005c <console_puts>
    80200282:	60a2                	ld	ra,8(sp)
    80200284:	00007517          	auipc	a0,0x7
    80200288:	db450513          	addi	a0,a0,-588 # 80207038 <etext+0x38>
    8020028c:	0141                	addi	sp,sp,16
    8020028e:	b3f9                	j	8020005c <console_puts>

0000000080200290 <initlock>:
    80200290:	e50c                	sd	a1,8(a0)
    80200292:	00052023          	sw	zero,0(a0)
    80200296:	8082                	ret

0000000080200298 <acquire>:
    80200298:	4705                	li	a4,1
    8020029a:	87ba                	mv	a5,a4
    8020029c:	0cf527af          	amoswap.w.aq	a5,a5,(a0)
    802002a0:	2781                	sext.w	a5,a5
    802002a2:	ffe5                	bnez	a5,8020029a <acquire+0x2>
    802002a4:	0ff0000f          	fence
    802002a8:	8082                	ret

00000000802002aa <release>:
    802002aa:	0ff0000f          	fence
    802002ae:	0f50000f          	fence	iorw,ow
    802002b2:	0805202f          	amoswap.w	zero,zero,(a0)
    802002b6:	8082                	ret

00000000802002b8 <alloc_page>:
    802002b8:	1101                	addi	sp,sp,-32
    802002ba:	e822                	sd	s0,16(sp)
    802002bc:	00008417          	auipc	s0,0x8
    802002c0:	5f440413          	addi	s0,s0,1524 # 802088b0 <page_cache>
    802002c4:	8522                	mv	a0,s0
    802002c6:	ec06                	sd	ra,24(sp)
    802002c8:	e426                	sd	s1,8(sp)
    802002ca:	fcfff0ef          	jal	80200298 <acquire>
    802002ce:	09042783          	lw	a5,144(s0)
    802002d2:	04f04063          	bgtz	a5,80200312 <alloc_page+0x5a>
    802002d6:	8522                	mv	a0,s0
    802002d8:	fd3ff0ef          	jal	802002aa <release>
    802002dc:	00008517          	auipc	a0,0x8
    802002e0:	66c50513          	addi	a0,a0,1644 # 80208948 <pmm>
    802002e4:	fb5ff0ef          	jal	80200298 <acquire>
    802002e8:	7444                	ld	s1,168(s0)
    802002ea:	cc9d                	beqz	s1,80200328 <alloc_page+0x70>
    802002ec:	609c                	ld	a5,0(s1)
    802002ee:	00008517          	auipc	a0,0x8
    802002f2:	65a50513          	addi	a0,a0,1626 # 80208948 <pmm>
    802002f6:	f45c                	sd	a5,168(s0)
    802002f8:	fb3ff0ef          	jal	802002aa <release>
    802002fc:	8526                	mv	a0,s1
    802002fe:	6605                	lui	a2,0x1
    80200300:	4595                	li	a1,5
    80200302:	286000ef          	jal	80200588 <memset>
    80200306:	60e2                	ld	ra,24(sp)
    80200308:	6442                	ld	s0,16(sp)
    8020030a:	8526                	mv	a0,s1
    8020030c:	64a2                	ld	s1,8(sp)
    8020030e:	6105                	addi	sp,sp,32
    80200310:	8082                	ret
    80200312:	fff7871b          	addiw	a4,a5,-1
    80200316:	87ba                	mv	a5,a4
    80200318:	0709                	addi	a4,a4,2
    8020031a:	070e                	slli	a4,a4,0x3
    8020031c:	9722                	add	a4,a4,s0
    8020031e:	6304                	ld	s1,0(a4)
    80200320:	8522                	mv	a0,s0
    80200322:	08f42823          	sw	a5,144(s0)
    80200326:	bfc9                	j	802002f8 <alloc_page+0x40>
    80200328:	00008517          	auipc	a0,0x8
    8020032c:	62050513          	addi	a0,a0,1568 # 80208948 <pmm>
    80200330:	f7bff0ef          	jal	802002aa <release>
    80200334:	60e2                	ld	ra,24(sp)
    80200336:	6442                	ld	s0,16(sp)
    80200338:	8526                	mv	a0,s1
    8020033a:	64a2                	ld	s1,8(sp)
    8020033c:	6105                	addi	sp,sp,32
    8020033e:	8082                	ret

0000000080200340 <free_page_to_freelist>:
    80200340:	1101                	addi	sp,sp,-32
    80200342:	e822                	sd	s0,16(sp)
    80200344:	842a                	mv	s0,a0
    80200346:	00008517          	auipc	a0,0x8
    8020034a:	60250513          	addi	a0,a0,1538 # 80208948 <pmm>
    8020034e:	e426                	sd	s1,8(sp)
    80200350:	ec06                	sd	ra,24(sp)
    80200352:	00008497          	auipc	s1,0x8
    80200356:	55e48493          	addi	s1,s1,1374 # 802088b0 <page_cache>
    8020035a:	f3fff0ef          	jal	80200298 <acquire>
    8020035e:	74dc                	ld	a5,168(s1)
    80200360:	c399                	beqz	a5,80200366 <free_page_to_freelist+0x26>
    80200362:	00f47f63          	bgeu	s0,a5,80200380 <free_page_to_freelist+0x40>
    80200366:	e01c                	sd	a5,0(s0)
    80200368:	f4c0                	sd	s0,168(s1)
    8020036a:	6442                	ld	s0,16(sp)
    8020036c:	60e2                	ld	ra,24(sp)
    8020036e:	64a2                	ld	s1,8(sp)
    80200370:	00008517          	auipc	a0,0x8
    80200374:	5d850513          	addi	a0,a0,1496 # 80208948 <pmm>
    80200378:	6105                	addi	sp,sp,32
    8020037a:	bf05                	j	802002aa <release>
    8020037c:	0087f563          	bgeu	a5,s0,80200386 <free_page_to_freelist+0x46>
    80200380:	873e                	mv	a4,a5
    80200382:	639c                	ld	a5,0(a5)
    80200384:	ffe5                	bnez	a5,8020037c <free_page_to_freelist+0x3c>
    80200386:	e01c                	sd	a5,0(s0)
    80200388:	e300                	sd	s0,0(a4)
    8020038a:	6442                	ld	s0,16(sp)
    8020038c:	60e2                	ld	ra,24(sp)
    8020038e:	64a2                	ld	s1,8(sp)
    80200390:	00008517          	auipc	a0,0x8
    80200394:	5b850513          	addi	a0,a0,1464 # 80208948 <pmm>
    80200398:	6105                	addi	sp,sp,32
    8020039a:	bf01                	j	802002aa <release>

000000008020039c <free_page>:
    8020039c:	1101                	addi	sp,sp,-32
    8020039e:	ec06                	sd	ra,24(sp)
    802003a0:	e822                	sd	s0,16(sp)
    802003a2:	e426                	sd	s1,8(sp)
    802003a4:	03451793          	slli	a5,a0,0x34
    802003a8:	e3bd                	bnez	a5,8020040e <free_page+0x72>
    802003aa:	0001d797          	auipc	a5,0x1d
    802003ae:	f9678793          	addi	a5,a5,-106 # 8021d340 <end>
    802003b2:	842a                	mv	s0,a0
    802003b4:	04f56d63          	bltu	a0,a5,8020040e <free_page+0x72>
    802003b8:	47c5                	li	a5,17
    802003ba:	07ee                	slli	a5,a5,0x1b
    802003bc:	04f57963          	bgeu	a0,a5,8020040e <free_page+0x72>
    802003c0:	6605                	lui	a2,0x1
    802003c2:	4585                	li	a1,1
    802003c4:	1c4000ef          	jal	80200588 <memset>
    802003c8:	00008497          	auipc	s1,0x8
    802003cc:	4e848493          	addi	s1,s1,1256 # 802088b0 <page_cache>
    802003d0:	8526                	mv	a0,s1
    802003d2:	ec7ff0ef          	jal	80200298 <acquire>
    802003d6:	0904a783          	lw	a5,144(s1)
    802003da:	473d                	li	a4,15
    802003dc:	00f75b63          	bge	a4,a5,802003f2 <free_page+0x56>
    802003e0:	8526                	mv	a0,s1
    802003e2:	ec9ff0ef          	jal	802002aa <release>
    802003e6:	8522                	mv	a0,s0
    802003e8:	6442                	ld	s0,16(sp)
    802003ea:	60e2                	ld	ra,24(sp)
    802003ec:	64a2                	ld	s1,8(sp)
    802003ee:	6105                	addi	sp,sp,32
    802003f0:	bf81                	j	80200340 <free_page_to_freelist>
    802003f2:	00278713          	addi	a4,a5,2
    802003f6:	070e                	slli	a4,a4,0x3
    802003f8:	9726                	add	a4,a4,s1
    802003fa:	e300                	sd	s0,0(a4)
    802003fc:	2785                	addiw	a5,a5,1
    802003fe:	6442                	ld	s0,16(sp)
    80200400:	60e2                	ld	ra,24(sp)
    80200402:	08f4a823          	sw	a5,144(s1)
    80200406:	8526                	mv	a0,s1
    80200408:	64a2                	ld	s1,8(sp)
    8020040a:	6105                	addi	sp,sp,32
    8020040c:	bd79                	j	802002aa <release>
    8020040e:	00007517          	auipc	a0,0x7
    80200412:	c3250513          	addi	a0,a0,-974 # 80207040 <etext+0x40>
    80200416:	e3bff0ef          	jal	80200250 <panic>

000000008020041a <freerange>:
    8020041a:	6785                	lui	a5,0x1
    8020041c:	fff78713          	addi	a4,a5,-1 # fff <_entry-0x801ff001>
    80200420:	1101                	addi	sp,sp,-32
    80200422:	953a                	add	a0,a0,a4
    80200424:	777d                	lui	a4,0xfffff
    80200426:	e822                	sd	s0,16(sp)
    80200428:	e426                	sd	s1,8(sp)
    8020042a:	ec06                	sd	ra,24(sp)
    8020042c:	00e574b3          	and	s1,a0,a4
    80200430:	40f58433          	sub	s0,a1,a5
    80200434:	00946b63          	bltu	s0,s1,8020044a <freerange+0x30>
    80200438:	e04a                	sd	s2,0(sp)
    8020043a:	797d                	lui	s2,0xfffff
    8020043c:	8522                	mv	a0,s0
    8020043e:	944a                	add	s0,s0,s2
    80200440:	f5dff0ef          	jal	8020039c <free_page>
    80200444:	fe947ce3          	bgeu	s0,s1,8020043c <freerange+0x22>
    80200448:	6902                	ld	s2,0(sp)
    8020044a:	60e2                	ld	ra,24(sp)
    8020044c:	6442                	ld	s0,16(sp)
    8020044e:	64a2                	ld	s1,8(sp)
    80200450:	6105                	addi	sp,sp,32
    80200452:	8082                	ret

0000000080200454 <pmm_init>:
    80200454:	1101                	addi	sp,sp,-32
    80200456:	00007597          	auipc	a1,0x7
    8020045a:	c0258593          	addi	a1,a1,-1022 # 80207058 <etext+0x58>
    8020045e:	00008517          	auipc	a0,0x8
    80200462:	4ea50513          	addi	a0,a0,1258 # 80208948 <pmm>
    80200466:	ec06                	sd	ra,24(sp)
    80200468:	e822                	sd	s0,16(sp)
    8020046a:	e426                	sd	s1,8(sp)
    8020046c:	e25ff0ef          	jal	80200290 <initlock>
    80200470:	00007597          	auipc	a1,0x7
    80200474:	bf058593          	addi	a1,a1,-1040 # 80207060 <etext+0x60>
    80200478:	00008517          	auipc	a0,0x8
    8020047c:	43850513          	addi	a0,a0,1080 # 802088b0 <page_cache>
    80200480:	e11ff0ef          	jal	80200290 <initlock>
    80200484:	00088437          	lui	s0,0x88
    80200488:	00008797          	auipc	a5,0x8
    8020048c:	4a07ac23          	sw	zero,1208(a5) # 80208940 <page_cache+0x90>
    80200490:	147d                	addi	s0,s0,-1 # 87fff <_entry-0x80178001>
    80200492:	0001e497          	auipc	s1,0x1e
    80200496:	ead48493          	addi	s1,s1,-339 # 8021e33f <end+0xfff>
    8020049a:	77fd                	lui	a5,0xfffff
    8020049c:	8cfd                	and	s1,s1,a5
    8020049e:	0432                	slli	s0,s0,0xc
    802004a0:	00946b63          	bltu	s0,s1,802004b6 <pmm_init+0x62>
    802004a4:	e04a                	sd	s2,0(sp)
    802004a6:	797d                	lui	s2,0xfffff
    802004a8:	8522                	mv	a0,s0
    802004aa:	944a                	add	s0,s0,s2
    802004ac:	ef1ff0ef          	jal	8020039c <free_page>
    802004b0:	fe947ce3          	bgeu	s0,s1,802004a8 <pmm_init+0x54>
    802004b4:	6902                	ld	s2,0(sp)
    802004b6:	60e2                	ld	ra,24(sp)
    802004b8:	6442                	ld	s0,16(sp)
    802004ba:	64a2                	ld	s1,8(sp)
    802004bc:	6105                	addi	sp,sp,32
    802004be:	8082                	ret

00000000802004c0 <alloc_pages>:
    802004c0:	1101                	addi	sp,sp,-32
    802004c2:	ec06                	sd	ra,24(sp)
    802004c4:	e04a                	sd	s2,0(sp)
    802004c6:	08a05f63          	blez	a0,80200564 <alloc_pages+0xa4>
    802004ca:	e822                	sd	s0,16(sp)
    802004cc:	842a                	mv	s0,a0
    802004ce:	00008517          	auipc	a0,0x8
    802004d2:	47a50513          	addi	a0,a0,1146 # 80208948 <pmm>
    802004d6:	e426                	sd	s1,8(sp)
    802004d8:	00008497          	auipc	s1,0x8
    802004dc:	3d848493          	addi	s1,s1,984 # 802088b0 <page_cache>
    802004e0:	db9ff0ef          	jal	80200298 <acquire>
    802004e4:	74d8                	ld	a4,168(s1)
    802004e6:	c749                	beqz	a4,80200570 <alloc_pages+0xb0>
    802004e8:	4685                	li	a3,1
    802004ea:	893a                	mv	s2,a4
    802004ec:	4601                	li	a2,0
    802004ee:	6505                	lui	a0,0x1
    802004f0:	00868f63          	beq	a3,s0,8020050e <alloc_pages+0x4e>
    802004f4:	631c                	ld	a5,0(a4)
    802004f6:	cfad                	beqz	a5,80200570 <alloc_pages+0xb0>
    802004f8:	c689                	beqz	a3,80200502 <alloc_pages+0x42>
    802004fa:	00a705b3          	add	a1,a4,a0
    802004fe:	04b78e63          	beq	a5,a1,8020055a <alloc_pages+0x9a>
    80200502:	893e                	mv	s2,a5
    80200504:	4685                	li	a3,1
    80200506:	863a                	mv	a2,a4
    80200508:	873e                	mv	a4,a5
    8020050a:	fe8695e3          	bne	a3,s0,802004f4 <alloc_pages+0x34>
    8020050e:	4785                	li	a5,1
    80200510:	874a                	mv	a4,s2
    80200512:	00f40663          	beq	s0,a5,8020051e <alloc_pages+0x5e>
    80200516:	2785                	addiw	a5,a5,1 # fffffffffffff001 <end+0xffffffff7fde1cc1>
    80200518:	6318                	ld	a4,0(a4)
    8020051a:	fef41ee3          	bne	s0,a5,80200516 <alloc_pages+0x56>
    8020051e:	631c                	ld	a5,0(a4)
    80200520:	c221                	beqz	a2,80200560 <alloc_pages+0xa0>
    80200522:	e21c                	sd	a5,0(a2)
    80200524:	00073023          	sd	zero,0(a4) # fffffffffffff000 <end+0xffffffff7fde1cc0>
    80200528:	00008517          	auipc	a0,0x8
    8020052c:	42050513          	addi	a0,a0,1056 # 80208948 <pmm>
    80200530:	0432                	slli	s0,s0,0xc
    80200532:	d79ff0ef          	jal	802002aa <release>
    80200536:	84ca                	mv	s1,s2
    80200538:	944a                	add	s0,s0,s2
    8020053a:	8526                	mv	a0,s1
    8020053c:	6605                	lui	a2,0x1
    8020053e:	458d                	li	a1,3
    80200540:	048000ef          	jal	80200588 <memset>
    80200544:	6785                	lui	a5,0x1
    80200546:	94be                	add	s1,s1,a5
    80200548:	fe8499e3          	bne	s1,s0,8020053a <alloc_pages+0x7a>
    8020054c:	6442                	ld	s0,16(sp)
    8020054e:	60e2                	ld	ra,24(sp)
    80200550:	64a2                	ld	s1,8(sp)
    80200552:	854a                	mv	a0,s2
    80200554:	6902                	ld	s2,0(sp)
    80200556:	6105                	addi	sp,sp,32
    80200558:	8082                	ret
    8020055a:	2685                	addiw	a3,a3,1
    8020055c:	8732                	mv	a4,a2
    8020055e:	b765                	j	80200506 <alloc_pages+0x46>
    80200560:	f4dc                	sd	a5,168(s1)
    80200562:	b7c9                	j	80200524 <alloc_pages+0x64>
    80200564:	60e2                	ld	ra,24(sp)
    80200566:	4901                	li	s2,0
    80200568:	854a                	mv	a0,s2
    8020056a:	6902                	ld	s2,0(sp)
    8020056c:	6105                	addi	sp,sp,32
    8020056e:	8082                	ret
    80200570:	00008517          	auipc	a0,0x8
    80200574:	3d850513          	addi	a0,a0,984 # 80208948 <pmm>
    80200578:	d33ff0ef          	jal	802002aa <release>
    8020057c:	00007517          	auipc	a0,0x7
    80200580:	af450513          	addi	a0,a0,-1292 # 80207070 <etext+0x70>
    80200584:	ccdff0ef          	jal	80200250 <panic>

0000000080200588 <memset>:
    80200588:	ce09                	beqz	a2,802005a2 <memset+0x1a>
    8020058a:	1602                	slli	a2,a2,0x20
    8020058c:	9201                	srli	a2,a2,0x20
    8020058e:	0ff5f593          	zext.b	a1,a1
    80200592:	87aa                	mv	a5,a0
    80200594:	00a60733          	add	a4,a2,a0
    80200598:	00b78023          	sb	a1,0(a5) # 1000 <_entry-0x801ff000>
    8020059c:	0785                	addi	a5,a5,1
    8020059e:	fee79de3          	bne	a5,a4,80200598 <memset+0x10>
    802005a2:	8082                	ret

00000000802005a4 <memmove>:
    802005a4:	c205                	beqz	a2,802005c4 <memmove+0x20>
    802005a6:	02061713          	slli	a4,a2,0x20
    802005aa:	9301                	srli	a4,a4,0x20
    802005ac:	00a5ed63          	bltu	a1,a0,802005c6 <memmove+0x22>
    802005b0:	972e                	add	a4,a4,a1
    802005b2:	87aa                	mv	a5,a0
    802005b4:	0005c683          	lbu	a3,0(a1)
    802005b8:	0585                	addi	a1,a1,1
    802005ba:	0785                	addi	a5,a5,1
    802005bc:	fed78fa3          	sb	a3,-1(a5)
    802005c0:	fee59ae3          	bne	a1,a4,802005b4 <memmove+0x10>
    802005c4:	8082                	ret
    802005c6:	00e586b3          	add	a3,a1,a4
    802005ca:	fed573e3          	bgeu	a0,a3,802005b0 <memmove+0xc>
    802005ce:	fff6079b          	addiw	a5,a2,-1 # fff <_entry-0x801ff001>
    802005d2:	1782                	slli	a5,a5,0x20
    802005d4:	9381                	srli	a5,a5,0x20
    802005d6:	fff7c793          	not	a5,a5
    802005da:	972a                	add	a4,a4,a0
    802005dc:	97b6                	add	a5,a5,a3
    802005de:	fff6c603          	lbu	a2,-1(a3)
    802005e2:	16fd                	addi	a3,a3,-1
    802005e4:	177d                	addi	a4,a4,-1
    802005e6:	00c70023          	sb	a2,0(a4)
    802005ea:	fed79ae3          	bne	a5,a3,802005de <memmove+0x3a>
    802005ee:	8082                	ret

00000000802005f0 <strncmp>:
    802005f0:	ce01                	beqz	a2,80200608 <strncmp+0x18>
    802005f2:	00054783          	lbu	a5,0(a0)
    802005f6:	367d                	addiw	a2,a2,-1
    802005f8:	cb91                	beqz	a5,8020060c <strncmp+0x1c>
    802005fa:	0005c703          	lbu	a4,0(a1)
    802005fe:	00f71763          	bne	a4,a5,8020060c <strncmp+0x1c>
    80200602:	0505                	addi	a0,a0,1
    80200604:	0585                	addi	a1,a1,1
    80200606:	f675                	bnez	a2,802005f2 <strncmp+0x2>
    80200608:	4501                	li	a0,0
    8020060a:	8082                	ret
    8020060c:	00054503          	lbu	a0,0(a0)
    80200610:	0005c783          	lbu	a5,0(a1)
    80200614:	9d1d                	subw	a0,a0,a5
    80200616:	8082                	ret

0000000080200618 <strncpy>:
    80200618:	87aa                	mv	a5,a0
    8020061a:	a039                	j	80200628 <strncpy+0x10>
    8020061c:	0005c683          	lbu	a3,0(a1)
    80200620:	0585                	addi	a1,a1,1
    80200622:	fed78fa3          	sb	a3,-1(a5)
    80200626:	c699                	beqz	a3,80200634 <strncpy+0x1c>
    80200628:	8732                	mv	a4,a2
    8020062a:	0785                	addi	a5,a5,1
    8020062c:	367d                	addiw	a2,a2,-1
    8020062e:	fee047e3          	bgtz	a4,8020061c <strncpy+0x4>
    80200632:	8082                	ret
    80200634:	9f3d                	addw	a4,a4,a5
    80200636:	377d                	addiw	a4,a4,-1
    80200638:	ca09                	beqz	a2,8020064a <strncpy+0x32>
    8020063a:	0785                	addi	a5,a5,1
    8020063c:	40f706bb          	subw	a3,a4,a5
    80200640:	fe078fa3          	sb	zero,-1(a5)
    80200644:	fed04be3          	bgtz	a3,8020063a <strncpy+0x22>
    80200648:	8082                	ret
    8020064a:	8082                	ret

000000008020064c <strlen>:
    8020064c:	00054783          	lbu	a5,0(a0)
    80200650:	cf81                	beqz	a5,80200668 <strlen+0x1c>
    80200652:	0505                	addi	a0,a0,1
    80200654:	87aa                	mv	a5,a0
    80200656:	0007c703          	lbu	a4,0(a5)
    8020065a:	86be                	mv	a3,a5
    8020065c:	0785                	addi	a5,a5,1
    8020065e:	ff65                	bnez	a4,80200656 <strlen+0xa>
    80200660:	40a6853b          	subw	a0,a3,a0
    80200664:	2505                	addiw	a0,a0,1
    80200666:	8082                	ret
    80200668:	4501                	li	a0,0
    8020066a:	8082                	ret

000000008020066c <create_pagetable>:
    8020066c:	1141                	addi	sp,sp,-16
    8020066e:	e022                	sd	s0,0(sp)
    80200670:	e406                	sd	ra,8(sp)
    80200672:	c47ff0ef          	jal	802002b8 <alloc_page>
    80200676:	842a                	mv	s0,a0
    80200678:	c509                	beqz	a0,80200682 <create_pagetable+0x16>
    8020067a:	6605                	lui	a2,0x1
    8020067c:	4581                	li	a1,0
    8020067e:	f0bff0ef          	jal	80200588 <memset>
    80200682:	60a2                	ld	ra,8(sp)
    80200684:	8522                	mv	a0,s0
    80200686:	6402                	ld	s0,0(sp)
    80200688:	0141                	addi	sp,sp,16
    8020068a:	8082                	ret

000000008020068c <destroy_pagetable>:
    8020068c:	7111                	addi	sp,sp,-256
    8020068e:	6785                	lui	a5,0x1
    80200690:	f9a2                	sd	s0,240(sp)
    80200692:	f1ca                	sd	s2,224(sp)
    80200694:	e1da                	sd	s6,192(sp)
    80200696:	fd5e                	sd	s7,184(sp)
    80200698:	fd86                	sd	ra,248(sp)
    8020069a:	842a                	mv	s0,a0
    8020069c:	892a                	mv	s2,a0
    8020069e:	00f50b33          	add	s6,a0,a5
    802006a2:	6b85                	lui	s7,0x1
    802006a4:	a021                	j	802006ac <destroy_pagetable+0x20>
    802006a6:	0921                	addi	s2,s2,8 # fffffffffffff008 <end+0xffffffff7fde1cc8>
    802006a8:	21690363          	beq	s2,s6,802008ae <destroy_pagetable+0x222>
    802006ac:	00093783          	ld	a5,0(s2)
    802006b0:	4705                	li	a4,1
    802006b2:	00f7f693          	andi	a3,a5,15
    802006b6:	fee698e3          	bne	a3,a4,802006a6 <destroy_pagetable+0x1a>
    802006ba:	83a9                	srli	a5,a5,0xa
    802006bc:	e9d2                	sd	s4,208(sp)
    802006be:	00c79a13          	slli	s4,a5,0xc
    802006c2:	f5a6                	sd	s1,232(sp)
    802006c4:	e5d6                	sd	s5,200(sp)
    802006c6:	f566                	sd	s9,168(sp)
    802006c8:	ed6e                	sd	s11,152(sp)
    802006ca:	017a0cb3          	add	s9,s4,s7
    802006ce:	4d85                	li	s11,1
    802006d0:	8ad2                	mv	s5,s4
    802006d2:	84a2                	mv	s1,s0
    802006d4:	a021                	j	802006dc <destroy_pagetable+0x50>
    802006d6:	0a21                	addi	s4,s4,8
    802006d8:	1b9a0f63          	beq	s4,s9,80200896 <destroy_pagetable+0x20a>
    802006dc:	000a3783          	ld	a5,0(s4)
    802006e0:	00f7f713          	andi	a4,a5,15
    802006e4:	ffb719e3          	bne	a4,s11,802006d6 <destroy_pagetable+0x4a>
    802006e8:	83a9                	srli	a5,a5,0xa
    802006ea:	edce                	sd	s3,216(sp)
    802006ec:	00c79993          	slli	s3,a5,0xc
    802006f0:	f962                	sd	s8,176(sp)
    802006f2:	f16a                	sd	s10,160(sp)
    802006f4:	8c4e                	mv	s8,s3
    802006f6:	01798d33          	add	s10,s3,s7
    802006fa:	844e                	mv	s0,s3
    802006fc:	a021                	j	80200704 <destroy_pagetable+0x78>
    802006fe:	0421                	addi	s0,s0,8
    80200700:	19a40263          	beq	s0,s10,80200884 <destroy_pagetable+0x1f8>
    80200704:	601c                	ld	a5,0(s0)
    80200706:	00f7f713          	andi	a4,a5,15
    8020070a:	ffb71ae3          	bne	a4,s11,802006fe <destroy_pagetable+0x72>
    8020070e:	83a9                	srli	a5,a5,0xa
    80200710:	07b2                	slli	a5,a5,0xc
    80200712:	8726                	mv	a4,s1
    80200714:	fc56                	sd	s5,56(sp)
    80200716:	84ca                	mv	s1,s2
    80200718:	017789b3          	add	s3,a5,s7
    8020071c:	f822                	sd	s0,48(sp)
    8020071e:	8abe                	mv	s5,a5
    80200720:	893a                	mv	s2,a4
    80200722:	a021                	j	8020072a <destroy_pagetable+0x9e>
    80200724:	07a1                	addi	a5,a5,8 # 1008 <_entry-0x801feff8>
    80200726:	14f98463          	beq	s3,a5,8020086e <destroy_pagetable+0x1e2>
    8020072a:	6398                	ld	a4,0(a5)
    8020072c:	00f77693          	andi	a3,a4,15
    80200730:	ffb69ae3          	bne	a3,s11,80200724 <destroy_pagetable+0x98>
    80200734:	8329                	srli	a4,a4,0xa
    80200736:	0732                	slli	a4,a4,0xc
    80200738:	017706b3          	add	a3,a4,s7
    8020073c:	e0ce                	sd	s3,64(sp)
    8020073e:	e436                	sd	a3,8(sp)
    80200740:	e4be                	sd	a5,72(sp)
    80200742:	89ba                	mv	s3,a4
    80200744:	a029                	j	8020074e <destroy_pagetable+0xc2>
    80200746:	67a2                	ld	a5,8(sp)
    80200748:	0721                	addi	a4,a4,8
    8020074a:	10e78863          	beq	a5,a4,8020085a <destroy_pagetable+0x1ce>
    8020074e:	631c                	ld	a5,0(a4)
    80200750:	00f7f693          	andi	a3,a5,15
    80200754:	ffb699e3          	bne	a3,s11,80200746 <destroy_pagetable+0xba>
    80200758:	83a9                	srli	a5,a5,0xa
    8020075a:	07b2                	slli	a5,a5,0xc
    8020075c:	017786b3          	add	a3,a5,s7
    80200760:	e8e2                	sd	s8,80(sp)
    80200762:	ec36                	sd	a3,24(sp)
    80200764:	8c56                	mv	s8,s5
    80200766:	ecba                	sd	a4,88(sp)
    80200768:	8abe                	mv	s5,a5
    8020076a:	f0ca                	sd	s2,96(sp)
    8020076c:	a029                	j	80200776 <destroy_pagetable+0xea>
    8020076e:	6762                	ld	a4,24(sp)
    80200770:	07a1                	addi	a5,a5,8
    80200772:	0cf70763          	beq	a4,a5,80200840 <destroy_pagetable+0x1b4>
    80200776:	6398                	ld	a4,0(a5)
    80200778:	00f77693          	andi	a3,a4,15
    8020077c:	ffb699e3          	bne	a3,s11,8020076e <destroy_pagetable+0xe2>
    80200780:	8329                	srli	a4,a4,0xa
    80200782:	00c71913          	slli	s2,a4,0xc
    80200786:	01790733          	add	a4,s2,s7
    8020078a:	f4ca                	sd	s2,104(sp)
    8020078c:	844a                	mv	s0,s2
    8020078e:	f03a                	sd	a4,32(sp)
    80200790:	f8be                	sd	a5,112(sp)
    80200792:	8926                	mv	s2,s1
    80200794:	a029                	j	8020079e <destroy_pagetable+0x112>
    80200796:	7782                	ld	a5,32(sp)
    80200798:	0421                	addi	s0,s0,8
    8020079a:	08878863          	beq	a5,s0,8020082a <destroy_pagetable+0x19e>
    8020079e:	601c                	ld	a5,0(s0)
    802007a0:	00f7f693          	andi	a3,a5,15
    802007a4:	ffb699e3          	bne	a3,s11,80200796 <destroy_pagetable+0x10a>
    802007a8:	83a9                	srli	a5,a5,0xa
    802007aa:	00c79493          	slli	s1,a5,0xc
    802007ae:	017487b3          	add	a5,s1,s7
    802007b2:	e826                	sd	s1,16(sp)
    802007b4:	f43e                	sd	a5,40(sp)
    802007b6:	fca2                	sd	s0,120(sp)
    802007b8:	a029                	j	802007c2 <destroy_pagetable+0x136>
    802007ba:	77a2                	ld	a5,40(sp)
    802007bc:	04a1                	addi	s1,s1,8
    802007be:	04978e63          	beq	a5,s1,8020081a <destroy_pagetable+0x18e>
    802007c2:	609c                	ld	a5,0(s1)
    802007c4:	00f7f693          	andi	a3,a5,15
    802007c8:	ffb699e3          	bne	a3,s11,802007ba <destroy_pagetable+0x12e>
    802007cc:	83a9                	srli	a5,a5,0xa
    802007ce:	00c79413          	slli	s0,a5,0xc
    802007d2:	017406b3          	add	a3,s0,s7
    802007d6:	e14a                	sd	s2,128(sp)
    802007d8:	e55a                	sd	s6,136(sp)
    802007da:	8922                	mv	s2,s0
    802007dc:	8b52                	mv	s6,s4
    802007de:	8a26                	mv	s4,s1
    802007e0:	84b6                	mv	s1,a3
    802007e2:	a021                	j	802007ea <destroy_pagetable+0x15e>
    802007e4:	0421                	addi	s0,s0,8
    802007e6:	00848f63          	beq	s1,s0,80200804 <destroy_pagetable+0x178>
    802007ea:	601c                	ld	a5,0(s0)
    802007ec:	00f7f713          	andi	a4,a5,15
    802007f0:	ffb71ae3          	bne	a4,s11,802007e4 <destroy_pagetable+0x158>
    802007f4:	83a9                	srli	a5,a5,0xa
    802007f6:	00c79513          	slli	a0,a5,0xc
    802007fa:	0421                	addi	s0,s0,8
    802007fc:	e91ff0ef          	jal	8020068c <destroy_pagetable>
    80200800:	fe8495e3          	bne	s1,s0,802007ea <destroy_pagetable+0x15e>
    80200804:	854a                	mv	a0,s2
    80200806:	84d2                	mv	s1,s4
    80200808:	690a                	ld	s2,128(sp)
    8020080a:	8a5a                	mv	s4,s6
    8020080c:	6b2a                	ld	s6,136(sp)
    8020080e:	b8fff0ef          	jal	8020039c <free_page>
    80200812:	77a2                	ld	a5,40(sp)
    80200814:	04a1                	addi	s1,s1,8
    80200816:	fa9796e3          	bne	a5,s1,802007c2 <destroy_pagetable+0x136>
    8020081a:	6542                	ld	a0,16(sp)
    8020081c:	7466                	ld	s0,120(sp)
    8020081e:	b7fff0ef          	jal	8020039c <free_page>
    80200822:	7782                	ld	a5,32(sp)
    80200824:	0421                	addi	s0,s0,8
    80200826:	f6879ce3          	bne	a5,s0,8020079e <destroy_pagetable+0x112>
    8020082a:	77c6                	ld	a5,112(sp)
    8020082c:	7526                	ld	a0,104(sp)
    8020082e:	84ca                	mv	s1,s2
    80200830:	e83e                	sd	a5,16(sp)
    80200832:	b6bff0ef          	jal	8020039c <free_page>
    80200836:	67c2                	ld	a5,16(sp)
    80200838:	6762                	ld	a4,24(sp)
    8020083a:	07a1                	addi	a5,a5,8
    8020083c:	f2f71de3          	bne	a4,a5,80200776 <destroy_pagetable+0xea>
    80200840:	6766                	ld	a4,88(sp)
    80200842:	8556                	mv	a0,s5
    80200844:	7906                	ld	s2,96(sp)
    80200846:	e83a                	sd	a4,16(sp)
    80200848:	8ae2                	mv	s5,s8
    8020084a:	6c46                	ld	s8,80(sp)
    8020084c:	b51ff0ef          	jal	8020039c <free_page>
    80200850:	6742                	ld	a4,16(sp)
    80200852:	67a2                	ld	a5,8(sp)
    80200854:	0721                	addi	a4,a4,8
    80200856:	eee79ce3          	bne	a5,a4,8020074e <destroy_pagetable+0xc2>
    8020085a:	67a6                	ld	a5,72(sp)
    8020085c:	854e                	mv	a0,s3
    8020085e:	6986                	ld	s3,64(sp)
    80200860:	e43e                	sd	a5,8(sp)
    80200862:	b3bff0ef          	jal	8020039c <free_page>
    80200866:	67a2                	ld	a5,8(sp)
    80200868:	07a1                	addi	a5,a5,8
    8020086a:	ecf990e3          	bne	s3,a5,8020072a <destroy_pagetable+0x9e>
    8020086e:	7442                	ld	s0,48(sp)
    80200870:	87ca                	mv	a5,s2
    80200872:	8556                	mv	a0,s5
    80200874:	0421                	addi	s0,s0,8
    80200876:	7ae2                	ld	s5,56(sp)
    80200878:	8926                	mv	s2,s1
    8020087a:	84be                	mv	s1,a5
    8020087c:	b21ff0ef          	jal	8020039c <free_page>
    80200880:	e9a412e3          	bne	s0,s10,80200704 <destroy_pagetable+0x78>
    80200884:	8562                	mv	a0,s8
    80200886:	0a21                	addi	s4,s4,8
    80200888:	b15ff0ef          	jal	8020039c <free_page>
    8020088c:	69ee                	ld	s3,216(sp)
    8020088e:	7c4a                	ld	s8,176(sp)
    80200890:	7d0a                	ld	s10,160(sp)
    80200892:	e59a15e3          	bne	s4,s9,802006dc <destroy_pagetable+0x50>
    80200896:	8556                	mv	a0,s5
    80200898:	0921                	addi	s2,s2,8
    8020089a:	b03ff0ef          	jal	8020039c <free_page>
    8020089e:	8426                	mv	s0,s1
    802008a0:	6a4e                	ld	s4,208(sp)
    802008a2:	74ae                	ld	s1,232(sp)
    802008a4:	6aae                	ld	s5,200(sp)
    802008a6:	7caa                	ld	s9,168(sp)
    802008a8:	6dea                	ld	s11,152(sp)
    802008aa:	e16911e3          	bne	s2,s6,802006ac <destroy_pagetable+0x20>
    802008ae:	8522                	mv	a0,s0
    802008b0:	744e                	ld	s0,240(sp)
    802008b2:	70ee                	ld	ra,248(sp)
    802008b4:	790e                	ld	s2,224(sp)
    802008b6:	6b0e                	ld	s6,192(sp)
    802008b8:	7bea                	ld	s7,184(sp)
    802008ba:	6111                	addi	sp,sp,256
    802008bc:	b4c5                	j	8020039c <free_page>

00000000802008be <walk_create>:
    802008be:	7179                	addi	sp,sp,-48
    802008c0:	ec26                	sd	s1,24(sp)
    802008c2:	e84a                	sd	s2,16(sp)
    802008c4:	e44e                	sd	s3,8(sp)
    802008c6:	e052                	sd	s4,0(sp)
    802008c8:	f406                	sd	ra,40(sp)
    802008ca:	f022                	sd	s0,32(sp)
    802008cc:	84aa                	mv	s1,a0
    802008ce:	892e                	mv	s2,a1
    802008d0:	4989                	li	s3,2
    802008d2:	4789                	li	a5,2
    802008d4:	4a05                	li	s4,1
    802008d6:	0037941b          	slliw	s0,a5,0x3
    802008da:	9c3d                	addw	s0,s0,a5
    802008dc:	2431                	addiw	s0,s0,12
    802008de:	00895433          	srl	s0,s2,s0
    802008e2:	1ff47413          	andi	s0,s0,511
    802008e6:	040e                	slli	s0,s0,0x3
    802008e8:	9426                	add	s0,s0,s1
    802008ea:	6004                	ld	s1,0(s0)
    802008ec:	0014f793          	andi	a5,s1,1
    802008f0:	80a9                	srli	s1,s1,0xa
    802008f2:	04b2                	slli	s1,s1,0xc
    802008f4:	c78d                	beqz	a5,8020091e <walk_create+0x60>
    802008f6:	4785                	li	a5,1
    802008f8:	01498463          	beq	s3,s4,80200900 <walk_create+0x42>
    802008fc:	4985                	li	s3,1
    802008fe:	bfe1                	j	802008d6 <walk_create+0x18>
    80200900:	00c95913          	srli	s2,s2,0xc
    80200904:	1ff97913          	andi	s2,s2,511
    80200908:	090e                	slli	s2,s2,0x3
    8020090a:	01248533          	add	a0,s1,s2
    8020090e:	70a2                	ld	ra,40(sp)
    80200910:	7402                	ld	s0,32(sp)
    80200912:	64e2                	ld	s1,24(sp)
    80200914:	6942                	ld	s2,16(sp)
    80200916:	69a2                	ld	s3,8(sp)
    80200918:	6a02                	ld	s4,0(sp)
    8020091a:	6145                	addi	sp,sp,48
    8020091c:	8082                	ret
    8020091e:	99bff0ef          	jal	802002b8 <alloc_page>
    80200922:	6605                	lui	a2,0x1
    80200924:	4581                	li	a1,0
    80200926:	84aa                	mv	s1,a0
    80200928:	c911                	beqz	a0,8020093c <walk_create+0x7e>
    8020092a:	c5fff0ef          	jal	80200588 <memset>
    8020092e:	00c4d793          	srli	a5,s1,0xc
    80200932:	07aa                	slli	a5,a5,0xa
    80200934:	0017e793          	ori	a5,a5,1
    80200938:	e01c                	sd	a5,0(s0)
    8020093a:	bf75                	j	802008f6 <walk_create+0x38>
    8020093c:	4501                	li	a0,0
    8020093e:	bfc1                	j	8020090e <walk_create+0x50>

0000000080200940 <map_page>:
    80200940:	6805                	lui	a6,0x1
    80200942:	7139                	addi	sp,sp,-64
    80200944:	fff80793          	addi	a5,a6,-1 # fff <_entry-0x801ff001>
    80200948:	fc06                	sd	ra,56(sp)
    8020094a:	f822                	sd	s0,48(sp)
    8020094c:	f426                	sd	s1,40(sp)
    8020094e:	f04a                	sd	s2,32(sp)
    80200950:	ec4e                	sd	s3,24(sp)
    80200952:	e852                	sd	s4,16(sp)
    80200954:	e456                	sd	s5,8(sp)
    80200956:	e05a                	sd	s6,0(sp)
    80200958:	00f5f8b3          	and	a7,a1,a5
    8020095c:	08089563          	bnez	a7,802009e6 <map_page+0xa6>
    80200960:	8a3a                	mv	s4,a4
    80200962:	00f67733          	and	a4,a2,a5
    80200966:	eb35                	bnez	a4,802009da <map_page+0x9a>
    80200968:	8ff5                	and	a5,a5,a3
    8020096a:	e3b5                	bnez	a5,802009ce <map_page+0x8e>
    8020096c:	410686b3          	sub	a3,a3,a6
    80200970:	89aa                	mv	s3,a0
    80200972:	8b2e                	mv	s6,a1
    80200974:	00b684b3          	add	s1,a3,a1
    80200978:	40b60933          	sub	s2,a2,a1
    8020097c:	6a85                	lui	s5,0x1
    8020097e:	a831                	j	8020099a <map_page+0x5a>
    80200980:	611c                	ld	a5,0(a0)
    80200982:	8b85                	andi	a5,a5,1
    80200984:	ef9d                	bnez	a5,802009c2 <map_page+0x82>
    80200986:	8031                	srli	s0,s0,0xc
    80200988:	042a                	slli	s0,s0,0xa
    8020098a:	01446433          	or	s0,s0,s4
    8020098e:	00146413          	ori	s0,s0,1
    80200992:	e100                	sd	s0,0(a0)
    80200994:	029b0563          	beq	s6,s1,802009be <map_page+0x7e>
    80200998:	9b56                	add	s6,s6,s5
    8020099a:	85da                	mv	a1,s6
    8020099c:	854e                	mv	a0,s3
    8020099e:	012b0433          	add	s0,s6,s2
    802009a2:	f1dff0ef          	jal	802008be <walk_create>
    802009a6:	fd69                	bnez	a0,80200980 <map_page+0x40>
    802009a8:	557d                	li	a0,-1
    802009aa:	70e2                	ld	ra,56(sp)
    802009ac:	7442                	ld	s0,48(sp)
    802009ae:	74a2                	ld	s1,40(sp)
    802009b0:	7902                	ld	s2,32(sp)
    802009b2:	69e2                	ld	s3,24(sp)
    802009b4:	6a42                	ld	s4,16(sp)
    802009b6:	6aa2                	ld	s5,8(sp)
    802009b8:	6b02                	ld	s6,0(sp)
    802009ba:	6121                	addi	sp,sp,64
    802009bc:	8082                	ret
    802009be:	4501                	li	a0,0
    802009c0:	b7ed                	j	802009aa <map_page+0x6a>
    802009c2:	00006517          	auipc	a0,0x6
    802009c6:	73650513          	addi	a0,a0,1846 # 802070f8 <etext+0xf8>
    802009ca:	887ff0ef          	jal	80200250 <panic>
    802009ce:	00006517          	auipc	a0,0x6
    802009d2:	70a50513          	addi	a0,a0,1802 # 802070d8 <etext+0xd8>
    802009d6:	87bff0ef          	jal	80200250 <panic>
    802009da:	00006517          	auipc	a0,0x6
    802009de:	6de50513          	addi	a0,a0,1758 # 802070b8 <etext+0xb8>
    802009e2:	86fff0ef          	jal	80200250 <panic>
    802009e6:	00006517          	auipc	a0,0x6
    802009ea:	6b250513          	addi	a0,a0,1714 # 80207098 <etext+0x98>
    802009ee:	863ff0ef          	jal	80200250 <panic>

00000000802009f2 <unmap_page.part.0>:
    802009f2:	7139                	addi	sp,sp,-64
    802009f4:	f04a                	sd	s2,32(sp)
    802009f6:	00c61913          	slli	s2,a2,0xc
    802009fa:	fc06                	sd	ra,56(sp)
    802009fc:	992e                	add	s2,s2,a1
    802009fe:	0525f163          	bgeu	a1,s2,80200a40 <unmap_page.part.0+0x4e>
    80200a02:	f426                	sd	s1,40(sp)
    80200a04:	ec4e                	sd	s3,24(sp)
    80200a06:	e852                	sd	s4,16(sp)
    80200a08:	e456                	sd	s5,8(sp)
    80200a0a:	f822                	sd	s0,48(sp)
    80200a0c:	84ae                	mv	s1,a1
    80200a0e:	89aa                	mv	s3,a0
    80200a10:	8ab6                	mv	s5,a3
    80200a12:	6a05                	lui	s4,0x1
    80200a14:	85a6                	mv	a1,s1
    80200a16:	854e                	mv	a0,s3
    80200a18:	ea7ff0ef          	jal	802008be <walk_create>
    80200a1c:	842a                	mv	s0,a0
    80200a1e:	c909                	beqz	a0,80200a30 <unmap_page.part.0+0x3e>
    80200a20:	611c                	ld	a5,0(a0)
    80200a22:	0017f713          	andi	a4,a5,1
    80200a26:	c709                	beqz	a4,80200a30 <unmap_page.part.0+0x3e>
    80200a28:	020a9063          	bnez	s5,80200a48 <unmap_page.part.0+0x56>
    80200a2c:	00043023          	sd	zero,0(s0)
    80200a30:	94d2                	add	s1,s1,s4
    80200a32:	ff24e1e3          	bltu	s1,s2,80200a14 <unmap_page.part.0+0x22>
    80200a36:	7442                	ld	s0,48(sp)
    80200a38:	74a2                	ld	s1,40(sp)
    80200a3a:	69e2                	ld	s3,24(sp)
    80200a3c:	6a42                	ld	s4,16(sp)
    80200a3e:	6aa2                	ld	s5,8(sp)
    80200a40:	70e2                	ld	ra,56(sp)
    80200a42:	7902                	ld	s2,32(sp)
    80200a44:	6121                	addi	sp,sp,64
    80200a46:	8082                	ret
    80200a48:	83a9                	srli	a5,a5,0xa
    80200a4a:	00c79513          	slli	a0,a5,0xc
    80200a4e:	94fff0ef          	jal	8020039c <free_page>
    80200a52:	bfe9                	j	80200a2c <unmap_page.part.0+0x3a>

0000000080200a54 <walk_lookup>:
    80200a54:	01e5d793          	srli	a5,a1,0x1e
    80200a58:	1ff7f793          	andi	a5,a5,511
    80200a5c:	078e                	slli	a5,a5,0x3
    80200a5e:	953e                	add	a0,a0,a5
    80200a60:	6118                	ld	a4,0(a0)
    80200a62:	00177793          	andi	a5,a4,1
    80200a66:	c78d                	beqz	a5,80200a90 <walk_lookup+0x3c>
    80200a68:	0155d793          	srli	a5,a1,0x15
    80200a6c:	8329                	srli	a4,a4,0xa
    80200a6e:	1ff7f793          	andi	a5,a5,511
    80200a72:	0732                	slli	a4,a4,0xc
    80200a74:	078e                	slli	a5,a5,0x3
    80200a76:	97ba                	add	a5,a5,a4
    80200a78:	6388                	ld	a0,0(a5)
    80200a7a:	00157793          	andi	a5,a0,1
    80200a7e:	cb89                	beqz	a5,80200a90 <walk_lookup+0x3c>
    80200a80:	81b1                	srli	a1,a1,0xc
    80200a82:	8129                	srli	a0,a0,0xa
    80200a84:	1ff5f593          	andi	a1,a1,511
    80200a88:	058e                	slli	a1,a1,0x3
    80200a8a:	0532                	slli	a0,a0,0xc
    80200a8c:	952e                	add	a0,a0,a1
    80200a8e:	8082                	ret
    80200a90:	4501                	li	a0,0
    80200a92:	8082                	ret

0000000080200a94 <kvm_init>:
    80200a94:	1101                	addi	sp,sp,-32
    80200a96:	e822                	sd	s0,16(sp)
    80200a98:	ec06                	sd	ra,24(sp)
    80200a9a:	e426                	sd	s1,8(sp)
    80200a9c:	e04a                	sd	s2,0(sp)
    80200a9e:	81bff0ef          	jal	802002b8 <alloc_page>
    80200aa2:	842a                	mv	s0,a0
    80200aa4:	c509                	beqz	a0,80200aae <kvm_init+0x1a>
    80200aa6:	6605                	lui	a2,0x1
    80200aa8:	4581                	li	a1,0
    80200aaa:	adfff0ef          	jal	80200588 <memset>
    80200aae:	bff00693          	li	a3,-1025
    80200ab2:	40100613          	li	a2,1025
    80200ab6:	00006917          	auipc	s2,0x6
    80200aba:	54a90913          	addi	s2,s2,1354 # 80207000 <etext>
    80200abe:	06d6                	slli	a3,a3,0x15
    80200ac0:	0656                	slli	a2,a2,0x15
    80200ac2:	00008497          	auipc	s1,0x8
    80200ac6:	dce48493          	addi	s1,s1,-562 # 80208890 <kernel_pagetable>
    80200aca:	4729                	li	a4,10
    80200acc:	96ca                	add	a3,a3,s2
    80200ace:	85b2                	mv	a1,a2
    80200ad0:	8522                	mv	a0,s0
    80200ad2:	e080                	sd	s0,0(s1)
    80200ad4:	e6dff0ef          	jal	80200940 <map_page>
    80200ad8:	e149                	bnez	a0,80200b5a <kvm_init+0xc6>
    80200ada:	46c5                	li	a3,17
    80200adc:	6088                	ld	a0,0(s1)
    80200ade:	06ee                	slli	a3,a3,0x1b
    80200ae0:	4719                	li	a4,6
    80200ae2:	412686b3          	sub	a3,a3,s2
    80200ae6:	864a                	mv	a2,s2
    80200ae8:	85ca                	mv	a1,s2
    80200aea:	e57ff0ef          	jal	80200940 <map_page>
    80200aee:	e535                	bnez	a0,80200b5a <kvm_init+0xc6>
    80200af0:	6088                	ld	a0,0(s1)
    80200af2:	100005b7          	lui	a1,0x10000
    80200af6:	dc9ff0ef          	jal	802008be <walk_create>
    80200afa:	872a                	mv	a4,a0
    80200afc:	cd39                	beqz	a0,80200b5a <kvm_init+0xc6>
    80200afe:	611c                	ld	a5,0(a0)
    80200b00:	8b85                	andi	a5,a5,1
    80200b02:	ebc1                	bnez	a5,80200b92 <kvm_init+0xfe>
    80200b04:	6088                	ld	a0,0(s1)
    80200b06:	040007b7          	lui	a5,0x4000
    80200b0a:	079d                	addi	a5,a5,7 # 4000007 <_entry-0x7c1ffff9>
    80200b0c:	e31c                	sd	a5,0(a4)
    80200b0e:	100015b7          	lui	a1,0x10001
    80200b12:	dadff0ef          	jal	802008be <walk_create>
    80200b16:	c131                	beqz	a0,80200b5a <kvm_init+0xc6>
    80200b18:	611c                	ld	a5,0(a0)
    80200b1a:	8b85                	andi	a5,a5,1
    80200b1c:	ebbd                	bnez	a5,80200b92 <kvm_init+0xfe>
    80200b1e:	040007b7          	lui	a5,0x4000
    80200b22:	40778793          	addi	a5,a5,1031 # 4000407 <_entry-0x7c1ffbf9>
    80200b26:	0004b903          	ld	s2,0(s1)
    80200b2a:	0c000437          	lui	s0,0xc000
    80200b2e:	e11c                	sd	a5,0(a0)
    80200b30:	a005                	j	80200b50 <kvm_init+0xbc>
    80200b32:	611c                	ld	a5,0(a0)
    80200b34:	8b85                	andi	a5,a5,1
    80200b36:	efb1                	bnez	a5,80200b92 <kvm_init+0xfe>
    80200b38:	00c45793          	srli	a5,s0,0xc
    80200b3c:	07aa                	slli	a5,a5,0xa
    80200b3e:	0077e793          	ori	a5,a5,7
    80200b42:	e11c                	sd	a5,0(a0)
    80200b44:	0c3ff7b7          	lui	a5,0xc3ff
    80200b48:	00f40f63          	beq	s0,a5,80200b66 <kvm_init+0xd2>
    80200b4c:	6785                	lui	a5,0x1
    80200b4e:	943e                	add	s0,s0,a5
    80200b50:	85a2                	mv	a1,s0
    80200b52:	854a                	mv	a0,s2
    80200b54:	d6bff0ef          	jal	802008be <walk_create>
    80200b58:	fd69                	bnez	a0,80200b32 <kvm_init+0x9e>
    80200b5a:	00006517          	auipc	a0,0x6
    80200b5e:	5ae50513          	addi	a0,a0,1454 # 80207108 <etext+0x108>
    80200b62:	eeeff0ef          	jal	80200250 <panic>
    80200b66:	040005b7          	lui	a1,0x4000
    80200b6a:	6088                	ld	a0,0(s1)
    80200b6c:	15fd                	addi	a1,a1,-1 # 3ffffff <_entry-0x7c200001>
    80200b6e:	4729                	li	a4,10
    80200b70:	6685                	lui	a3,0x1
    80200b72:	00005617          	auipc	a2,0x5
    80200b76:	48e60613          	addi	a2,a2,1166 # 80206000 <_trampoline>
    80200b7a:	05b2                	slli	a1,a1,0xc
    80200b7c:	dc5ff0ef          	jal	80200940 <map_page>
    80200b80:	fd69                	bnez	a0,80200b5a <kvm_init+0xc6>
    80200b82:	6442                	ld	s0,16(sp)
    80200b84:	6088                	ld	a0,0(s1)
    80200b86:	60e2                	ld	ra,24(sp)
    80200b88:	64a2                	ld	s1,8(sp)
    80200b8a:	6902                	ld	s2,0(sp)
    80200b8c:	6105                	addi	sp,sp,32
    80200b8e:	7ee0006f          	j	8020137c <proc_mapstacks>
    80200b92:	00006517          	auipc	a0,0x6
    80200b96:	56650513          	addi	a0,a0,1382 # 802070f8 <etext+0xf8>
    80200b9a:	eb6ff0ef          	jal	80200250 <panic>

0000000080200b9e <kvm_inithart>:
    80200b9e:	00008797          	auipc	a5,0x8
    80200ba2:	cf27b783          	ld	a5,-782(a5) # 80208890 <kernel_pagetable>
    80200ba6:	577d                	li	a4,-1
    80200ba8:	177e                	slli	a4,a4,0x3f
    80200baa:	83b1                	srli	a5,a5,0xc
    80200bac:	8fd9                	or	a5,a5,a4
    80200bae:	18079073          	csrw	satp,a5
    80200bb2:	12000073          	sfence.vma
    80200bb6:	8082                	ret

0000000080200bb8 <map_region>:
    80200bb8:	1141                	addi	sp,sp,-16
    80200bba:	e406                	sd	ra,8(sp)
    80200bbc:	d85ff0ef          	jal	80200940 <map_page>
    80200bc0:	e501                	bnez	a0,80200bc8 <map_region+0x10>
    80200bc2:	60a2                	ld	ra,8(sp)
    80200bc4:	0141                	addi	sp,sp,16
    80200bc6:	8082                	ret
    80200bc8:	00006517          	auipc	a0,0x6
    80200bcc:	54050513          	addi	a0,a0,1344 # 80207108 <etext+0x108>
    80200bd0:	e80ff0ef          	jal	80200250 <panic>

0000000080200bd4 <unmap_page>:
    80200bd4:	03459793          	slli	a5,a1,0x34
    80200bd8:	e391                	bnez	a5,80200bdc <unmap_page+0x8>
    80200bda:	bd21                	j	802009f2 <unmap_page.part.0>
    80200bdc:	1141                	addi	sp,sp,-16
    80200bde:	00006517          	auipc	a0,0x6
    80200be2:	53250513          	addi	a0,a0,1330 # 80207110 <etext+0x110>
    80200be6:	e406                	sd	ra,8(sp)
    80200be8:	e68ff0ef          	jal	80200250 <panic>

0000000080200bec <copyout>:
    80200bec:	c6c9                	beqz	a3,80200c76 <copyout+0x8a>
    80200bee:	715d                	addi	sp,sp,-80
    80200bf0:	e0a2                	sd	s0,64(sp)
    80200bf2:	f84a                	sd	s2,48(sp)
    80200bf4:	f44e                	sd	s3,40(sp)
    80200bf6:	f052                	sd	s4,32(sp)
    80200bf8:	ec56                	sd	s5,24(sp)
    80200bfa:	e85a                	sd	s6,16(sp)
    80200bfc:	e45e                	sd	s7,8(sp)
    80200bfe:	e486                	sd	ra,72(sp)
    80200c00:	fc26                	sd	s1,56(sp)
    80200c02:	8bb6                	mv	s7,a3
    80200c04:	8a2a                	mv	s4,a0
    80200c06:	842e                	mv	s0,a1
    80200c08:	8932                	mv	s2,a2
    80200c0a:	7afd                	lui	s5,0xfffff
    80200c0c:	4b45                	li	s6,17
    80200c0e:	6985                	lui	s3,0x1
    80200c10:	a805                	j	80200c40 <copyout+0x54>
    80200c12:	611c                	ld	a5,0(a0)
    80200c14:	00a7d713          	srli	a4,a5,0xa
    80200c18:	0732                	slli	a4,a4,0xc
    80200c1a:	8bc5                	andi	a5,a5,17
    80200c1c:	00d70533          	add	a0,a4,a3
    80200c20:	03679d63          	bne	a5,s6,80200c5a <copyout+0x6e>
    80200c24:	008bf363          	bgeu	s7,s0,80200c2a <copyout+0x3e>
    80200c28:	845e                	mv	s0,s7
    80200c2a:	0004061b          	sext.w	a2,s0
    80200c2e:	408b8bb3          	sub	s7,s7,s0
    80200c32:	9922                	add	s2,s2,s0
    80200c34:	971ff0ef          	jal	802005a4 <memmove>
    80200c38:	01348433          	add	s0,s1,s3
    80200c3c:	020b8b63          	beqz	s7,80200c72 <copyout+0x86>
    80200c40:	015474b3          	and	s1,s0,s5
    80200c44:	85a6                	mv	a1,s1
    80200c46:	8552                	mv	a0,s4
    80200c48:	e0dff0ef          	jal	80200a54 <walk_lookup>
    80200c4c:	409406b3          	sub	a3,s0,s1
    80200c50:	40848433          	sub	s0,s1,s0
    80200c54:	85ca                	mv	a1,s2
    80200c56:	944e                	add	s0,s0,s3
    80200c58:	fd4d                	bnez	a0,80200c12 <copyout+0x26>
    80200c5a:	557d                	li	a0,-1
    80200c5c:	60a6                	ld	ra,72(sp)
    80200c5e:	6406                	ld	s0,64(sp)
    80200c60:	74e2                	ld	s1,56(sp)
    80200c62:	7942                	ld	s2,48(sp)
    80200c64:	79a2                	ld	s3,40(sp)
    80200c66:	7a02                	ld	s4,32(sp)
    80200c68:	6ae2                	ld	s5,24(sp)
    80200c6a:	6b42                	ld	s6,16(sp)
    80200c6c:	6ba2                	ld	s7,8(sp)
    80200c6e:	6161                	addi	sp,sp,80
    80200c70:	8082                	ret
    80200c72:	4501                	li	a0,0
    80200c74:	b7e5                	j	80200c5c <copyout+0x70>
    80200c76:	4501                	li	a0,0
    80200c78:	8082                	ret

0000000080200c7a <copy_pagetable>:
    80200c7a:	c649                	beqz	a2,80200d04 <copy_pagetable+0x8a>
    80200c7c:	7139                	addi	sp,sp,-64
    80200c7e:	f822                	sd	s0,48(sp)
    80200c80:	f04a                	sd	s2,32(sp)
    80200c82:	ec4e                	sd	s3,24(sp)
    80200c84:	e852                	sd	s4,16(sp)
    80200c86:	fc06                	sd	ra,56(sp)
    80200c88:	f426                	sd	s1,40(sp)
    80200c8a:	e456                	sd	s5,8(sp)
    80200c8c:	8932                	mv	s2,a2
    80200c8e:	89aa                	mv	s3,a0
    80200c90:	8a2e                	mv	s4,a1
    80200c92:	4401                	li	s0,0
    80200c94:	85a2                	mv	a1,s0
    80200c96:	854e                	mv	a0,s3
    80200c98:	c27ff0ef          	jal	802008be <walk_create>
    80200c9c:	c915                	beqz	a0,80200cd0 <copy_pagetable+0x56>
    80200c9e:	611c                	ld	a5,0(a0)
    80200ca0:	00a7d593          	srli	a1,a5,0xa
    80200ca4:	3ff7fa93          	andi	s5,a5,1023
    80200ca8:	8b85                	andi	a5,a5,1
    80200caa:	00c59493          	slli	s1,a1,0xc
    80200cae:	c38d                	beqz	a5,80200cd0 <copy_pagetable+0x56>
    80200cb0:	e08ff0ef          	jal	802002b8 <alloc_page>
    80200cb4:	85a6                	mv	a1,s1
    80200cb6:	6605                	lui	a2,0x1
    80200cb8:	84aa                	mv	s1,a0
    80200cba:	cd05                	beqz	a0,80200cf2 <copy_pagetable+0x78>
    80200cbc:	8e9ff0ef          	jal	802005a4 <memmove>
    80200cc0:	8756                	mv	a4,s5
    80200cc2:	86a6                	mv	a3,s1
    80200cc4:	6605                	lui	a2,0x1
    80200cc6:	85a2                	mv	a1,s0
    80200cc8:	8552                	mv	a0,s4
    80200cca:	c77ff0ef          	jal	80200940 <map_page>
    80200cce:	ed19                	bnez	a0,80200cec <copy_pagetable+0x72>
    80200cd0:	6785                	lui	a5,0x1
    80200cd2:	943e                	add	s0,s0,a5
    80200cd4:	fd2460e3          	bltu	s0,s2,80200c94 <copy_pagetable+0x1a>
    80200cd8:	4501                	li	a0,0
    80200cda:	70e2                	ld	ra,56(sp)
    80200cdc:	7442                	ld	s0,48(sp)
    80200cde:	74a2                	ld	s1,40(sp)
    80200ce0:	7902                	ld	s2,32(sp)
    80200ce2:	69e2                	ld	s3,24(sp)
    80200ce4:	6a42                	ld	s4,16(sp)
    80200ce6:	6aa2                	ld	s5,8(sp)
    80200ce8:	6121                	addi	sp,sp,64
    80200cea:	8082                	ret
    80200cec:	8526                	mv	a0,s1
    80200cee:	eaeff0ef          	jal	8020039c <free_page>
    80200cf2:	8552                	mv	a0,s4
    80200cf4:	4685                	li	a3,1
    80200cf6:	00c45613          	srli	a2,s0,0xc
    80200cfa:	4581                	li	a1,0
    80200cfc:	cf7ff0ef          	jal	802009f2 <unmap_page.part.0>
    80200d00:	557d                	li	a0,-1
    80200d02:	bfe1                	j	80200cda <copy_pagetable+0x60>
    80200d04:	4501                	li	a0,0
    80200d06:	8082                	ret

0000000080200d08 <plic_init>:
    80200d08:	0c000737          	lui	a4,0xc000
    80200d0c:	4685                	li	a3,1
    80200d0e:	c354                	sw	a3,4(a4)
    80200d10:	0c0027b7          	lui	a5,0xc002
    80200d14:	4709                	li	a4,2
    80200d16:	08e7a023          	sw	a4,128(a5) # c002080 <_entry-0x741fdf80>
    80200d1a:	0c2017b7          	lui	a5,0xc201
    80200d1e:	0007a023          	sw	zero,0(a5) # c201000 <_entry-0x73fff000>
    80200d22:	8082                	ret

0000000080200d24 <trap_init>:
    80200d24:	00000797          	auipc	a5,0x0
    80200d28:	56c78793          	addi	a5,a5,1388 # 80201290 <kernelvec>
    80200d2c:	10579073          	csrw	stvec,a5
    80200d30:	100027f3          	csrr	a5,sstatus
    80200d34:	0027e793          	ori	a5,a5,2
    80200d38:	10079073          	csrw	sstatus,a5
    80200d3c:	104027f3          	csrr	a5,sie
    80200d40:	2007e793          	ori	a5,a5,512
    80200d44:	10479073          	csrw	sie,a5
    80200d48:	00008797          	auipc	a5,0x8
    80200d4c:	c1878793          	addi	a5,a5,-1000 # 80208960 <interrupt_vector>
    80200d50:	00008717          	auipc	a4,0x8
    80200d54:	01070713          	addi	a4,a4,16 # 80208d60 <pid_lock>
    80200d58:	0007b023          	sd	zero,0(a5)
    80200d5c:	07a1                	addi	a5,a5,8
    80200d5e:	fee79de3          	bne	a5,a4,80200d58 <trap_init+0x34>
    80200d62:	0c000737          	lui	a4,0xc000
    80200d66:	4685                	li	a3,1
    80200d68:	c354                	sw	a3,4(a4)
    80200d6a:	0c0027b7          	lui	a5,0xc002
    80200d6e:	4709                	li	a4,2
    80200d70:	08e7a023          	sw	a4,128(a5) # c002080 <_entry-0x741fdf80>
    80200d74:	0c2017b7          	lui	a5,0xc201
    80200d78:	0007a023          	sw	zero,0(a5) # c201000 <_entry-0x73fff000>
    80200d7c:	8082                	ret

0000000080200d7e <prepare_return>:
    80200d7e:	00008697          	auipc	a3,0x8
    80200d82:	b2a6b683          	ld	a3,-1238(a3) # 802088a8 <current_proc>
    80200d86:	100027f3          	csrr	a5,sstatus
    80200d8a:	9bf5                	andi	a5,a5,-3
    80200d8c:	10079073          	csrw	sstatus,a5
    80200d90:	04000737          	lui	a4,0x4000
    80200d94:	00005617          	auipc	a2,0x5
    80200d98:	26c60613          	addi	a2,a2,620 # 80206000 <_trampoline>
    80200d9c:	177d                	addi	a4,a4,-1 # 3ffffff <_entry-0x7c200001>
    80200d9e:	00005797          	auipc	a5,0x5
    80200da2:	26278793          	addi	a5,a5,610 # 80206000 <_trampoline>
    80200da6:	0732                	slli	a4,a4,0xc
    80200da8:	8f91                	sub	a5,a5,a2
    80200daa:	97ba                	add	a5,a5,a4
    80200dac:	10579073          	csrw	stvec,a5
    80200db0:	1406b783          	ld	a5,320(a3)
    80200db4:	18002673          	csrr	a2,satp
    80200db8:	6e98                	ld	a4,24(a3)
    80200dba:	6685                	lui	a3,0x1
    80200dbc:	e390                	sd	a2,0(a5)
    80200dbe:	9736                	add	a4,a4,a3
    80200dc0:	e798                	sd	a4,8(a5)
    80200dc2:	00000717          	auipc	a4,0x0
    80200dc6:	02670713          	addi	a4,a4,38 # 80200de8 <usertrap>
    80200dca:	eb98                	sd	a4,16(a5)
    80200dcc:	8712                	mv	a4,tp
    80200dce:	f398                	sd	a4,32(a5)
    80200dd0:	10002773          	csrr	a4,sstatus
    80200dd4:	eff77713          	andi	a4,a4,-257
    80200dd8:	02076713          	ori	a4,a4,32
    80200ddc:	10071073          	csrw	sstatus,a4
    80200de0:	6f9c                	ld	a5,24(a5)
    80200de2:	14179073          	csrw	sepc,a5
    80200de6:	8082                	ret

0000000080200de8 <usertrap>:
    80200de8:	1101                	addi	sp,sp,-32
    80200dea:	ec06                	sd	ra,24(sp)
    80200dec:	e822                	sd	s0,16(sp)
    80200dee:	e426                	sd	s1,8(sp)
    80200df0:	100027f3          	csrr	a5,sstatus
    80200df4:	1007f793          	andi	a5,a5,256
    80200df8:	efdd                	bnez	a5,80200eb6 <usertrap+0xce>
    80200dfa:	00000797          	auipc	a5,0x0
    80200dfe:	49678793          	addi	a5,a5,1174 # 80201290 <kernelvec>
    80200e02:	10579073          	csrw	stvec,a5
    80200e06:	00008497          	auipc	s1,0x8
    80200e0a:	aa24b483          	ld	s1,-1374(s1) # 802088a8 <current_proc>
    80200e0e:	1404b403          	ld	s0,320(s1)
    80200e12:	141027f3          	csrr	a5,sepc
    80200e16:	ec1c                	sd	a5,24(s0)
    80200e18:	142025f3          	csrr	a1,scause
    80200e1c:	4721                	li	a4,8
    80200e1e:	02e59c63          	bne	a1,a4,80200e56 <usertrap+0x6e>
    80200e22:	0791                	addi	a5,a5,4
    80200e24:	ec1c                	sd	a5,24(s0)
    80200e26:	100027f3          	csrr	a5,sstatus
    80200e2a:	0027e793          	ori	a5,a5,2
    80200e2e:	10079073          	csrw	sstatus,a5
    80200e32:	745c                	ld	a5,168(s0)
    80200e34:	470d                	li	a4,3
    80200e36:	7828                	ld	a0,112(s0)
    80200e38:	04e78d63          	beq	a5,a4,80200e92 <usertrap+0xaa>
    80200e3c:	06f76363          	bltu	a4,a5,80200ea2 <usertrap+0xba>
    80200e40:	4705                	li	a4,1
    80200e42:	04e78c63          	beq	a5,a4,80200e9a <usertrap+0xb2>
    80200e46:	4709                	li	a4,2
    80200e48:	06e79463          	bne	a5,a4,80200eb0 <usertrap+0xc8>
    80200e4c:	2501                	sext.w	a0,a0
    80200e4e:	2d4030ef          	jal	80204122 <sys_exit>
    80200e52:	f828                	sd	a0,112(s0)
    80200e54:	a015                	j	80200e78 <usertrap+0x90>
    80200e56:	4890                	lw	a2,16(s1)
    80200e58:	00006517          	auipc	a0,0x6
    80200e5c:	2f050513          	addi	a0,a0,752 # 80207148 <etext+0x148>
    80200e60:	afaff0ef          	jal	8020015a <printf>
    80200e64:	141025f3          	csrr	a1,sepc
    80200e68:	14302673          	csrr	a2,stval
    80200e6c:	00006517          	auipc	a0,0x6
    80200e70:	30c50513          	addi	a0,a0,780 # 80207178 <etext+0x178>
    80200e74:	ae6ff0ef          	jal	8020015a <printf>
    80200e78:	f07ff0ef          	jal	80200d7e <prepare_return>
    80200e7c:	1384b503          	ld	a0,312(s1)
    80200e80:	60e2                	ld	ra,24(sp)
    80200e82:	6442                	ld	s0,16(sp)
    80200e84:	57fd                	li	a5,-1
    80200e86:	8131                	srli	a0,a0,0xc
    80200e88:	17fe                	slli	a5,a5,0x3f
    80200e8a:	64a2                	ld	s1,8(sp)
    80200e8c:	8d5d                	or	a0,a0,a5
    80200e8e:	6105                	addi	sp,sp,32
    80200e90:	8082                	ret
    80200e92:	2c4030ef          	jal	80204156 <sys_wait>
    80200e96:	f828                	sd	a0,112(s0)
    80200e98:	b7c5                	j	80200e78 <usertrap+0x90>
    80200e9a:	2ae030ef          	jal	80204148 <sys_fork>
    80200e9e:	f828                	sd	a0,112(s0)
    80200ea0:	bfe1                	j	80200e78 <usertrap+0x90>
    80200ea2:	472d                	li	a4,11
    80200ea4:	00e79663          	bne	a5,a4,80200eb0 <usertrap+0xc8>
    80200ea8:	294030ef          	jal	8020413c <sys_getpid>
    80200eac:	f828                	sd	a0,112(s0)
    80200eae:	b7e9                	j	80200e78 <usertrap+0x90>
    80200eb0:	57fd                	li	a5,-1
    80200eb2:	f83c                	sd	a5,112(s0)
    80200eb4:	b7d1                	j	80200e78 <usertrap+0x90>
    80200eb6:	00006517          	auipc	a0,0x6
    80200eba:	27250513          	addi	a0,a0,626 # 80207128 <etext+0x128>
    80200ebe:	b92ff0ef          	jal	80200250 <panic>

0000000080200ec2 <register_interrupt>:
    80200ec2:	07f00793          	li	a5,127
    80200ec6:	00a7ea63          	bltu	a5,a0,80200eda <register_interrupt+0x18>
    80200eca:	050e                	slli	a0,a0,0x3
    80200ecc:	00008797          	auipc	a5,0x8
    80200ed0:	a9478793          	addi	a5,a5,-1388 # 80208960 <interrupt_vector>
    80200ed4:	97aa                	add	a5,a5,a0
    80200ed6:	e38c                	sd	a1,0(a5)
    80200ed8:	8082                	ret
    80200eda:	1141                	addi	sp,sp,-16
    80200edc:	00006517          	auipc	a0,0x6
    80200ee0:	2c450513          	addi	a0,a0,708 # 802071a0 <etext+0x1a0>
    80200ee4:	e406                	sd	ra,8(sp)
    80200ee6:	b6aff0ef          	jal	80200250 <panic>

0000000080200eea <unregister_interrupt>:
    80200eea:	07f00793          	li	a5,127
    80200eee:	00a7eb63          	bltu	a5,a0,80200f04 <unregister_interrupt+0x1a>
    80200ef2:	050e                	slli	a0,a0,0x3
    80200ef4:	00008797          	auipc	a5,0x8
    80200ef8:	a6c78793          	addi	a5,a5,-1428 # 80208960 <interrupt_vector>
    80200efc:	97aa                	add	a5,a5,a0
    80200efe:	0007b023          	sd	zero,0(a5)
    80200f02:	8082                	ret
    80200f04:	1141                	addi	sp,sp,-16
    80200f06:	00006517          	auipc	a0,0x6
    80200f0a:	29a50513          	addi	a0,a0,666 # 802071a0 <etext+0x1a0>
    80200f0e:	e406                	sd	ra,8(sp)
    80200f10:	b40ff0ef          	jal	80200250 <panic>

0000000080200f14 <enable_interrupt>:
    80200f14:	07f00793          	li	a5,127
    80200f18:	00a7ec63          	bltu	a5,a0,80200f30 <enable_interrupt+0x1c>
    80200f1c:	00f50363          	beq	a0,a5,80200f22 <enable_interrupt+0xe>
    80200f20:	8082                	ret
    80200f22:	104027f3          	csrr	a5,sie
    80200f26:	0207e793          	ori	a5,a5,32
    80200f2a:	10479073          	csrw	sie,a5
    80200f2e:	8082                	ret
    80200f30:	1141                	addi	sp,sp,-16
    80200f32:	00006517          	auipc	a0,0x6
    80200f36:	26e50513          	addi	a0,a0,622 # 802071a0 <etext+0x1a0>
    80200f3a:	e406                	sd	ra,8(sp)
    80200f3c:	b14ff0ef          	jal	80200250 <panic>

0000000080200f40 <disable_interrupt>:
    80200f40:	07f00793          	li	a5,127
    80200f44:	00a7ec63          	bltu	a5,a0,80200f5c <disable_interrupt+0x1c>
    80200f48:	00f50363          	beq	a0,a5,80200f4e <disable_interrupt+0xe>
    80200f4c:	8082                	ret
    80200f4e:	104027f3          	csrr	a5,sie
    80200f52:	fdf7f793          	andi	a5,a5,-33
    80200f56:	10479073          	csrw	sie,a5
    80200f5a:	8082                	ret
    80200f5c:	1141                	addi	sp,sp,-16
    80200f5e:	00006517          	auipc	a0,0x6
    80200f62:	24250513          	addi	a0,a0,578 # 802071a0 <etext+0x1a0>
    80200f66:	e406                	sd	ra,8(sp)
    80200f68:	ae8ff0ef          	jal	80200250 <panic>

0000000080200f6c <interrupt_dispatch>:
    80200f6c:	57fd                	li	a5,-1
    80200f6e:	1101                	addi	sp,sp,-32
    80200f70:	17fe                	slli	a5,a5,0x3f
    80200f72:	ec06                	sd	ra,24(sp)
    80200f74:	0795                	addi	a5,a5,5
    80200f76:	02f50a63          	beq	a0,a5,80200faa <interrupt_dispatch+0x3e>
    80200f7a:	57fd                	li	a5,-1
    80200f7c:	17fe                	slli	a5,a5,0x3f
    80200f7e:	e822                	sd	s0,16(sp)
    80200f80:	e426                	sd	s1,8(sp)
    80200f82:	07a5                	addi	a5,a5,9
    80200f84:	04f51163          	bne	a0,a5,80200fc6 <interrupt_dispatch+0x5a>
    80200f88:	0c201437          	lui	s0,0xc201
    80200f8c:	4044                	lw	s1,4(s0)
    80200f8e:	00008797          	auipc	a5,0x8
    80200f92:	9da7b783          	ld	a5,-1574(a5) # 80208968 <interrupt_vector+0x8>
    80200f96:	0411                	addi	s0,s0,4 # c201004 <_entry-0x73ffeffc>
    80200f98:	2481                	sext.w	s1,s1
    80200f9a:	c385                	beqz	a5,80200fba <interrupt_dispatch+0x4e>
    80200f9c:	9782                	jalr	a5
    80200f9e:	60e2                	ld	ra,24(sp)
    80200fa0:	c004                	sw	s1,0(s0)
    80200fa2:	6442                	ld	s0,16(sp)
    80200fa4:	64a2                	ld	s1,8(sp)
    80200fa6:	6105                	addi	sp,sp,32
    80200fa8:	8082                	ret
    80200faa:	00008797          	auipc	a5,0x8
    80200fae:	dae7b783          	ld	a5,-594(a5) # 80208d58 <interrupt_vector+0x3f8>
    80200fb2:	c385                	beqz	a5,80200fd2 <interrupt_dispatch+0x66>
    80200fb4:	60e2                	ld	ra,24(sp)
    80200fb6:	6105                	addi	sp,sp,32
    80200fb8:	8782                	jr	a5
    80200fba:	00006517          	auipc	a0,0x6
    80200fbe:	21e50513          	addi	a0,a0,542 # 802071d8 <etext+0x1d8>
    80200fc2:	a8eff0ef          	jal	80200250 <panic>
    80200fc6:	00006517          	auipc	a0,0x6
    80200fca:	23a50513          	addi	a0,a0,570 # 80207200 <etext+0x200>
    80200fce:	a82ff0ef          	jal	80200250 <panic>
    80200fd2:	00006517          	auipc	a0,0x6
    80200fd6:	1e650513          	addi	a0,a0,486 # 802071b8 <etext+0x1b8>
    80200fda:	e822                	sd	s0,16(sp)
    80200fdc:	e426                	sd	s1,8(sp)
    80200fde:	a72ff0ef          	jal	80200250 <panic>

0000000080200fe2 <dump_tframe>:
    80200fe2:	1141                	addi	sp,sp,-16
    80200fe4:	e022                	sd	s0,0(sp)
    80200fe6:	842a                	mv	s0,a0
    80200fe8:	00006517          	auipc	a0,0x6
    80200fec:	23050513          	addi	a0,a0,560 # 80207218 <etext+0x218>
    80200ff0:	e406                	sd	ra,8(sp)
    80200ff2:	968ff0ef          	jal	8020015a <printf>
    80200ff6:	600c                	ld	a1,0(s0)
    80200ff8:	00006517          	auipc	a0,0x6
    80200ffc:	23850513          	addi	a0,a0,568 # 80207230 <etext+0x230>
    80201000:	95aff0ef          	jal	8020015a <printf>
    80201004:	640c                	ld	a1,8(s0)
    80201006:	00006517          	auipc	a0,0x6
    8020100a:	23a50513          	addi	a0,a0,570 # 80207240 <etext+0x240>
    8020100e:	94cff0ef          	jal	8020015a <printf>
    80201012:	680c                	ld	a1,16(s0)
    80201014:	00006517          	auipc	a0,0x6
    80201018:	23c50513          	addi	a0,a0,572 # 80207250 <etext+0x250>
    8020101c:	93eff0ef          	jal	8020015a <printf>
    80201020:	6c0c                	ld	a1,24(s0)
    80201022:	6402                	ld	s0,0(sp)
    80201024:	60a2                	ld	ra,8(sp)
    80201026:	00006517          	auipc	a0,0x6
    8020102a:	23a50513          	addi	a0,a0,570 # 80207260 <etext+0x260>
    8020102e:	0141                	addi	sp,sp,16
    80201030:	92aff06f          	j	8020015a <printf>

0000000080201034 <handle_illegal_instruction>:
    80201034:	1141                	addi	sp,sp,-16
    80201036:	e022                	sd	s0,0(sp)
    80201038:	842a                	mv	s0,a0
    8020103a:	00006517          	auipc	a0,0x6
    8020103e:	23650513          	addi	a0,a0,566 # 80207270 <etext+0x270>
    80201042:	e406                	sd	ra,8(sp)
    80201044:	916ff0ef          	jal	8020015a <printf>
    80201048:	601c                	ld	a5,0(s0)
    8020104a:	60a2                	ld	ra,8(sp)
    8020104c:	0791                	addi	a5,a5,4
    8020104e:	e01c                	sd	a5,0(s0)
    80201050:	6402                	ld	s0,0(sp)
    80201052:	0141                	addi	sp,sp,16
    80201054:	8082                	ret

0000000080201056 <handle_syscall>:
    80201056:	1141                	addi	sp,sp,-16
    80201058:	e022                	sd	s0,0(sp)
    8020105a:	842a                	mv	s0,a0
    8020105c:	00006517          	auipc	a0,0x6
    80201060:	23450513          	addi	a0,a0,564 # 80207290 <etext+0x290>
    80201064:	e406                	sd	ra,8(sp)
    80201066:	8f4ff0ef          	jal	8020015a <printf>
    8020106a:	601c                	ld	a5,0(s0)
    8020106c:	60a2                	ld	ra,8(sp)
    8020106e:	0791                	addi	a5,a5,4
    80201070:	e01c                	sd	a5,0(s0)
    80201072:	6402                	ld	s0,0(sp)
    80201074:	0141                	addi	sp,sp,16
    80201076:	8082                	ret

0000000080201078 <handle_instruction_page_fault>:
    80201078:	1141                	addi	sp,sp,-16
    8020107a:	e022                	sd	s0,0(sp)
    8020107c:	842a                	mv	s0,a0
    8020107e:	00006517          	auipc	a0,0x6
    80201082:	22a50513          	addi	a0,a0,554 # 802072a8 <etext+0x2a8>
    80201086:	e406                	sd	ra,8(sp)
    80201088:	8d2ff0ef          	jal	8020015a <printf>
    8020108c:	00006517          	auipc	a0,0x6
    80201090:	18c50513          	addi	a0,a0,396 # 80207218 <etext+0x218>
    80201094:	8c6ff0ef          	jal	8020015a <printf>
    80201098:	600c                	ld	a1,0(s0)
    8020109a:	00006517          	auipc	a0,0x6
    8020109e:	19650513          	addi	a0,a0,406 # 80207230 <etext+0x230>
    802010a2:	8b8ff0ef          	jal	8020015a <printf>
    802010a6:	640c                	ld	a1,8(s0)
    802010a8:	00006517          	auipc	a0,0x6
    802010ac:	19850513          	addi	a0,a0,408 # 80207240 <etext+0x240>
    802010b0:	8aaff0ef          	jal	8020015a <printf>
    802010b4:	680c                	ld	a1,16(s0)
    802010b6:	00006517          	auipc	a0,0x6
    802010ba:	19a50513          	addi	a0,a0,410 # 80207250 <etext+0x250>
    802010be:	89cff0ef          	jal	8020015a <printf>
    802010c2:	6c0c                	ld	a1,24(s0)
    802010c4:	00006517          	auipc	a0,0x6
    802010c8:	19c50513          	addi	a0,a0,412 # 80207260 <etext+0x260>
    802010cc:	88eff0ef          	jal	8020015a <printf>
    802010d0:	00007697          	auipc	a3,0x7
    802010d4:	7c868693          	addi	a3,a3,1992 # 80208898 <cnt>
    802010d8:	6018                	ld	a4,0(s0)
    802010da:	429c                	lw	a5,0(a3)
    802010dc:	4611                	li	a2,4
    802010de:	0711                	addi	a4,a4,4
    802010e0:	2785                	addiw	a5,a5,1
    802010e2:	e018                	sd	a4,0(s0)
    802010e4:	c29c                	sw	a5,0(a3)
    802010e6:	0007871b          	sext.w	a4,a5
    802010ea:	00e64663          	blt	a2,a4,802010f6 <handle_instruction_page_fault+0x7e>
    802010ee:	60a2                	ld	ra,8(sp)
    802010f0:	6402                	ld	s0,0(sp)
    802010f2:	0141                	addi	sp,sp,16
    802010f4:	8082                	ret
    802010f6:	00006517          	auipc	a0,0x6
    802010fa:	1da50513          	addi	a0,a0,474 # 802072d0 <etext+0x2d0>
    802010fe:	952ff0ef          	jal	80200250 <panic>

0000000080201102 <handle_load_page_fault>:
    80201102:	1141                	addi	sp,sp,-16
    80201104:	e022                	sd	s0,0(sp)
    80201106:	842a                	mv	s0,a0
    80201108:	00006517          	auipc	a0,0x6
    8020110c:	1f050513          	addi	a0,a0,496 # 802072f8 <etext+0x2f8>
    80201110:	e406                	sd	ra,8(sp)
    80201112:	848ff0ef          	jal	8020015a <printf>
    80201116:	601c                	ld	a5,0(s0)
    80201118:	60a2                	ld	ra,8(sp)
    8020111a:	0791                	addi	a5,a5,4
    8020111c:	e01c                	sd	a5,0(s0)
    8020111e:	6402                	ld	s0,0(sp)
    80201120:	0141                	addi	sp,sp,16
    80201122:	8082                	ret

0000000080201124 <handle_store_page_fault>:
    80201124:	1141                	addi	sp,sp,-16
    80201126:	e022                	sd	s0,0(sp)
    80201128:	842a                	mv	s0,a0
    8020112a:	00006517          	auipc	a0,0x6
    8020112e:	1ee50513          	addi	a0,a0,494 # 80207318 <etext+0x318>
    80201132:	e406                	sd	ra,8(sp)
    80201134:	826ff0ef          	jal	8020015a <printf>
    80201138:	601c                	ld	a5,0(s0)
    8020113a:	60a2                	ld	ra,8(sp)
    8020113c:	0791                	addi	a5,a5,4
    8020113e:	e01c                	sd	a5,0(s0)
    80201140:	6402                	ld	s0,0(sp)
    80201142:	0141                	addi	sp,sp,16
    80201144:	8082                	ret

0000000080201146 <handle_exception>:
    80201146:	1101                	addi	sp,sp,-32
    80201148:	e426                	sd	s1,8(sp)
    8020114a:	ec06                	sd	ra,24(sp)
    8020114c:	e822                	sd	s0,16(sp)
    8020114e:	84aa                	mv	s1,a0
    80201150:	14202473          	csrr	s0,scause
    80201154:	0406                	slli	s0,s0,0x1
    80201156:	8005                	srli	s0,s0,0x1
    80201158:	85a2                	mv	a1,s0
    8020115a:	00006517          	auipc	a0,0x6
    8020115e:	1de50513          	addi	a0,a0,478 # 80207338 <etext+0x338>
    80201162:	ff9fe0ef          	jal	8020015a <printf>
    80201166:	47bd                	li	a5,15
    80201168:	0887e963          	bltu	a5,s0,802011fa <handle_exception+0xb4>
    8020116c:	00007717          	auipc	a4,0x7
    80201170:	6c870713          	addi	a4,a4,1736 # 80208834 <etext+0x1834>
    80201174:	040a                	slli	s0,s0,0x2
    80201176:	943a                	add	s0,s0,a4
    80201178:	401c                	lw	a5,0(s0)
    8020117a:	97ba                	add	a5,a5,a4
    8020117c:	8782                	jr	a5
    8020117e:	00006517          	auipc	a0,0x6
    80201182:	0f250513          	addi	a0,a0,242 # 80207270 <etext+0x270>
    80201186:	fd5fe0ef          	jal	8020015a <printf>
    8020118a:	609c                	ld	a5,0(s1)
    8020118c:	60e2                	ld	ra,24(sp)
    8020118e:	6442                	ld	s0,16(sp)
    80201190:	0791                	addi	a5,a5,4
    80201192:	e09c                	sd	a5,0(s1)
    80201194:	64a2                	ld	s1,8(sp)
    80201196:	6105                	addi	sp,sp,32
    80201198:	8082                	ret
    8020119a:	00006517          	auipc	a0,0x6
    8020119e:	0f650513          	addi	a0,a0,246 # 80207290 <etext+0x290>
    802011a2:	fb9fe0ef          	jal	8020015a <printf>
    802011a6:	609c                	ld	a5,0(s1)
    802011a8:	60e2                	ld	ra,24(sp)
    802011aa:	6442                	ld	s0,16(sp)
    802011ac:	0791                	addi	a5,a5,4
    802011ae:	e09c                	sd	a5,0(s1)
    802011b0:	64a2                	ld	s1,8(sp)
    802011b2:	6105                	addi	sp,sp,32
    802011b4:	8082                	ret
    802011b6:	6442                	ld	s0,16(sp)
    802011b8:	60e2                	ld	ra,24(sp)
    802011ba:	8526                	mv	a0,s1
    802011bc:	64a2                	ld	s1,8(sp)
    802011be:	6105                	addi	sp,sp,32
    802011c0:	bd65                	j	80201078 <handle_instruction_page_fault>
    802011c2:	00006517          	auipc	a0,0x6
    802011c6:	13650513          	addi	a0,a0,310 # 802072f8 <etext+0x2f8>
    802011ca:	f91fe0ef          	jal	8020015a <printf>
    802011ce:	609c                	ld	a5,0(s1)
    802011d0:	60e2                	ld	ra,24(sp)
    802011d2:	6442                	ld	s0,16(sp)
    802011d4:	0791                	addi	a5,a5,4
    802011d6:	e09c                	sd	a5,0(s1)
    802011d8:	64a2                	ld	s1,8(sp)
    802011da:	6105                	addi	sp,sp,32
    802011dc:	8082                	ret
    802011de:	00006517          	auipc	a0,0x6
    802011e2:	13a50513          	addi	a0,a0,314 # 80207318 <etext+0x318>
    802011e6:	f75fe0ef          	jal	8020015a <printf>
    802011ea:	609c                	ld	a5,0(s1)
    802011ec:	60e2                	ld	ra,24(sp)
    802011ee:	6442                	ld	s0,16(sp)
    802011f0:	0791                	addi	a5,a5,4
    802011f2:	e09c                	sd	a5,0(s1)
    802011f4:	64a2                	ld	s1,8(sp)
    802011f6:	6105                	addi	sp,sp,32
    802011f8:	8082                	ret
    802011fa:	00006517          	auipc	a0,0x6
    802011fe:	14e50513          	addi	a0,a0,334 # 80207348 <etext+0x348>
    80201202:	84eff0ef          	jal	80200250 <panic>

0000000080201206 <kerneltrap>:
    80201206:	7139                	addi	sp,sp,-64
    80201208:	fc06                	sd	ra,56(sp)
    8020120a:	f822                	sd	s0,48(sp)
    8020120c:	f426                	sd	s1,40(sp)
    8020120e:	141024f3          	csrr	s1,sepc
    80201212:	10002473          	csrr	s0,sstatus
    80201216:	14202773          	csrr	a4,scause
    8020121a:	10047793          	andi	a5,s0,256
    8020121e:	cfa9                	beqz	a5,80201278 <kerneltrap+0x72>
    80201220:	100027f3          	csrr	a5,sstatus
    80201224:	8b89                	andi	a5,a5,2
    80201226:	e3b9                	bnez	a5,8020126c <kerneltrap+0x66>
    80201228:	02074663          	bltz	a4,80201254 <kerneltrap+0x4e>
    8020122c:	e026                	sd	s1,0(sp)
    8020122e:	e422                	sd	s0,8(sp)
    80201230:	143027f3          	csrr	a5,stval
    80201234:	850a                	mv	a0,sp
    80201236:	e83e                	sd	a5,16(sp)
    80201238:	ec3a                	sd	a4,24(sp)
    8020123a:	f0dff0ef          	jal	80201146 <handle_exception>
    8020123e:	6782                	ld	a5,0(sp)
    80201240:	14179073          	csrw	sepc,a5
    80201244:	67a2                	ld	a5,8(sp)
    80201246:	10079073          	csrw	sstatus,a5
    8020124a:	70e2                	ld	ra,56(sp)
    8020124c:	7442                	ld	s0,48(sp)
    8020124e:	74a2                	ld	s1,40(sp)
    80201250:	6121                	addi	sp,sp,64
    80201252:	8082                	ret
    80201254:	853a                	mv	a0,a4
    80201256:	d17ff0ef          	jal	80200f6c <interrupt_dispatch>
    8020125a:	14149073          	csrw	sepc,s1
    8020125e:	10041073          	csrw	sstatus,s0
    80201262:	70e2                	ld	ra,56(sp)
    80201264:	7442                	ld	s0,48(sp)
    80201266:	74a2                	ld	s1,40(sp)
    80201268:	6121                	addi	sp,sp,64
    8020126a:	8082                	ret
    8020126c:	00006517          	auipc	a0,0x6
    80201270:	11c50513          	addi	a0,a0,284 # 80207388 <etext+0x388>
    80201274:	fddfe0ef          	jal	80200250 <panic>
    80201278:	00006517          	auipc	a0,0x6
    8020127c:	0e850513          	addi	a0,a0,232 # 80207360 <etext+0x360>
    80201280:	fd1fe0ef          	jal	80200250 <panic>
	...

0000000080201290 <kernelvec>:
    80201290:	7111                	addi	sp,sp,-256
    80201292:	e006                	sd	ra,0(sp)
    80201294:	e80e                	sd	gp,16(sp)
    80201296:	ec12                	sd	tp,24(sp)
    80201298:	f016                	sd	t0,32(sp)
    8020129a:	f41a                	sd	t1,40(sp)
    8020129c:	f81e                	sd	t2,48(sp)
    8020129e:	e4aa                	sd	a0,72(sp)
    802012a0:	e8ae                	sd	a1,80(sp)
    802012a2:	ecb2                	sd	a2,88(sp)
    802012a4:	f0b6                	sd	a3,96(sp)
    802012a6:	f4ba                	sd	a4,104(sp)
    802012a8:	f8be                	sd	a5,112(sp)
    802012aa:	fcc2                	sd	a6,120(sp)
    802012ac:	e146                	sd	a7,128(sp)
    802012ae:	edf2                	sd	t3,216(sp)
    802012b0:	f1f6                	sd	t4,224(sp)
    802012b2:	f5fa                	sd	t5,232(sp)
    802012b4:	f9fe                	sd	t6,240(sp)
    802012b6:	f51ff0ef          	jal	80201206 <kerneltrap>
    802012ba:	6082                	ld	ra,0(sp)
    802012bc:	61c2                	ld	gp,16(sp)
    802012be:	6262                	ld	tp,24(sp)
    802012c0:	7282                	ld	t0,32(sp)
    802012c2:	7322                	ld	t1,40(sp)
    802012c4:	73c2                	ld	t2,48(sp)
    802012c6:	6526                	ld	a0,72(sp)
    802012c8:	65c6                	ld	a1,80(sp)
    802012ca:	6666                	ld	a2,88(sp)
    802012cc:	7686                	ld	a3,96(sp)
    802012ce:	7726                	ld	a4,104(sp)
    802012d0:	77c6                	ld	a5,112(sp)
    802012d2:	7866                	ld	a6,120(sp)
    802012d4:	688a                	ld	a7,128(sp)
    802012d6:	6e6e                	ld	t3,216(sp)
    802012d8:	7e8e                	ld	t4,224(sp)
    802012da:	7f2e                	ld	t5,232(sp)
    802012dc:	7fce                	ld	t6,240(sp)
    802012de:	6111                	addi	sp,sp,256
    802012e0:	10200073          	sret
	...

00000000802012ee <sbi_set_timer>:
    802012ee:	4881                	li	a7,0
    802012f0:	00000073          	ecall
    802012f4:	8082                	ret

00000000802012f6 <get_time>:
    802012f6:	c0102573          	rdtime	a0
    802012fa:	8082                	ret

00000000802012fc <forkret>:
    802012fc:	1141                	addi	sp,sp,-16
    802012fe:	e022                	sd	s0,0(sp)
    80201300:	00007417          	auipc	s0,0x7
    80201304:	5a843403          	ld	s0,1448(s0) # 802088a8 <current_proc>
    80201308:	8522                	mv	a0,s0
    8020130a:	e406                	sd	ra,8(sp)
    8020130c:	f9ffe0ef          	jal	802002aa <release>
    80201310:	a6fff0ef          	jal	80200d7e <prepare_return>
    80201314:	04000737          	lui	a4,0x4000
    80201318:	13843503          	ld	a0,312(s0)
    8020131c:	177d                	addi	a4,a4,-1 # 3ffffff <_entry-0x7c200001>
    8020131e:	00005797          	auipc	a5,0x5
    80201322:	d7e78793          	addi	a5,a5,-642 # 8020609c <userret>
    80201326:	00005697          	auipc	a3,0x5
    8020132a:	cda68693          	addi	a3,a3,-806 # 80206000 <_trampoline>
    8020132e:	6402                	ld	s0,0(sp)
    80201330:	0732                	slli	a4,a4,0xc
    80201332:	8f95                	sub	a5,a5,a3
    80201334:	60a2                	ld	ra,8(sp)
    80201336:	97ba                	add	a5,a5,a4
    80201338:	577d                	li	a4,-1
    8020133a:	8131                	srli	a0,a0,0xc
    8020133c:	177e                	slli	a4,a4,0x3f
    8020133e:	8d59                	or	a0,a0,a4
    80201340:	0141                	addi	sp,sp,16
    80201342:	8782                	jr	a5

0000000080201344 <alloc_pid>:
    80201344:	1101                	addi	sp,sp,-32
    80201346:	e426                	sd	s1,8(sp)
    80201348:	00008497          	auipc	s1,0x8
    8020134c:	a1848493          	addi	s1,s1,-1512 # 80208d60 <pid_lock>
    80201350:	8526                	mv	a0,s1
    80201352:	ec06                	sd	ra,24(sp)
    80201354:	e822                	sd	s0,16(sp)
    80201356:	f43fe0ef          	jal	80200298 <acquire>
    8020135a:	00007797          	auipc	a5,0x7
    8020135e:	52678793          	addi	a5,a5,1318 # 80208880 <next_pid>
    80201362:	4380                	lw	s0,0(a5)
    80201364:	8526                	mv	a0,s1
    80201366:	0014071b          	addiw	a4,s0,1
    8020136a:	c398                	sw	a4,0(a5)
    8020136c:	f3ffe0ef          	jal	802002aa <release>
    80201370:	60e2                	ld	ra,24(sp)
    80201372:	8522                	mv	a0,s0
    80201374:	6442                	ld	s0,16(sp)
    80201376:	64a2                	ld	s1,8(sp)
    80201378:	6105                	addi	sp,sp,32
    8020137a:	8082                	ret

000000008020137c <proc_mapstacks>:
    8020137c:	7139                	addi	sp,sp,-64
    8020137e:	f822                	sd	s0,48(sp)
    80201380:	fcf3d437          	lui	s0,0xfcf3d
    80201384:	f3d40413          	addi	s0,s0,-195 # fffffffffcf3cf3d <end+0xffffffff7cd1fbfd>
    80201388:	0432                	slli	s0,s0,0xc
    8020138a:	f3d40413          	addi	s0,s0,-195
    8020138e:	0432                	slli	s0,s0,0xc
    80201390:	f426                	sd	s1,40(sp)
    80201392:	f3d40413          	addi	s0,s0,-195
    80201396:	040004b7          	lui	s1,0x4000
    8020139a:	ec4e                	sd	s3,24(sp)
    8020139c:	0432                	slli	s0,s0,0xc
    8020139e:	00013997          	auipc	s3,0x13
    802013a2:	ba298993          	addi	s3,s3,-1118 # 80213f40 <proc_table>
    802013a6:	14fd                	addi	s1,s1,-1 # 3ffffff <_entry-0x7c200001>
    802013a8:	f04a                	sd	s2,32(sp)
    802013aa:	e852                	sd	s4,16(sp)
    802013ac:	e456                	sd	s5,8(sp)
    802013ae:	fc06                	sd	ra,56(sp)
    802013b0:	892a                	mv	s2,a0
    802013b2:	8ace                	mv	s5,s3
    802013b4:	f3d40413          	addi	s0,s0,-195
    802013b8:	04b2                	slli	s1,s1,0xc
    802013ba:	00018a17          	auipc	s4,0x18
    802013be:	f86a0a13          	addi	s4,s4,-122 # 80219340 <stack_top>
    802013c2:	ef7fe0ef          	jal	802002b8 <alloc_page>
    802013c6:	862a                	mv	a2,a0
    802013c8:	cd0d                	beqz	a0,80201402 <proc_mapstacks+0x86>
    802013ca:	413a85b3          	sub	a1,s5,s3
    802013ce:	8591                	srai	a1,a1,0x4
    802013d0:	028585b3          	mul	a1,a1,s0
    802013d4:	4719                	li	a4,6
    802013d6:	6685                	lui	a3,0x1
    802013d8:	854a                	mv	a0,s2
    802013da:	150a8a93          	addi	s5,s5,336 # fffffffffffff150 <end+0xffffffff7fde1e10>
    802013de:	2585                	addiw	a1,a1,1
    802013e0:	00d5959b          	slliw	a1,a1,0xd
    802013e4:	40b485b3          	sub	a1,s1,a1
    802013e8:	fd0ff0ef          	jal	80200bb8 <map_region>
    802013ec:	fd4a9be3          	bne	s5,s4,802013c2 <proc_mapstacks+0x46>
    802013f0:	70e2                	ld	ra,56(sp)
    802013f2:	7442                	ld	s0,48(sp)
    802013f4:	74a2                	ld	s1,40(sp)
    802013f6:	7902                	ld	s2,32(sp)
    802013f8:	69e2                	ld	s3,24(sp)
    802013fa:	6a42                	ld	s4,16(sp)
    802013fc:	6aa2                	ld	s5,8(sp)
    802013fe:	6121                	addi	sp,sp,64
    80201400:	8082                	ret
    80201402:	00006517          	auipc	a0,0x6
    80201406:	fa650513          	addi	a0,a0,-90 # 802073a8 <etext+0x3a8>
    8020140a:	e47fe0ef          	jal	80200250 <panic>

000000008020140e <proc_init>:
    8020140e:	7139                	addi	sp,sp,-64
    80201410:	f426                	sd	s1,40(sp)
    80201412:	fcf3d4b7          	lui	s1,0xfcf3d
    80201416:	f3d48493          	addi	s1,s1,-195 # fffffffffcf3cf3d <end+0xffffffff7cd1fbfd>
    8020141a:	04b2                	slli	s1,s1,0xc
    8020141c:	f3d48493          	addi	s1,s1,-195
    80201420:	00006597          	auipc	a1,0x6
    80201424:	f9058593          	addi	a1,a1,-112 # 802073b0 <etext+0x3b0>
    80201428:	00008517          	auipc	a0,0x8
    8020142c:	93850513          	addi	a0,a0,-1736 # 80208d60 <pid_lock>
    80201430:	04b2                	slli	s1,s1,0xc
    80201432:	fc06                	sd	ra,56(sp)
    80201434:	f822                	sd	s0,48(sp)
    80201436:	f04a                	sd	s2,32(sp)
    80201438:	ec4e                	sd	s3,24(sp)
    8020143a:	e852                	sd	s4,16(sp)
    8020143c:	e456                	sd	s5,8(sp)
    8020143e:	f3d48493          	addi	s1,s1,-195
    80201442:	e4ffe0ef          	jal	80200290 <initlock>
    80201446:	04000937          	lui	s2,0x4000
    8020144a:	00006597          	auipc	a1,0x6
    8020144e:	f7658593          	addi	a1,a1,-138 # 802073c0 <etext+0x3c0>
    80201452:	00008517          	auipc	a0,0x8
    80201456:	91e50513          	addi	a0,a0,-1762 # 80208d70 <wait_lock>
    8020145a:	00013997          	auipc	s3,0x13
    8020145e:	ae698993          	addi	s3,s3,-1306 # 80213f40 <proc_table>
    80201462:	04b2                	slli	s1,s1,0xc
    80201464:	197d                	addi	s2,s2,-1 # 3ffffff <_entry-0x7c200001>
    80201466:	e2bfe0ef          	jal	80200290 <initlock>
    8020146a:	844e                	mv	s0,s3
    8020146c:	00018a97          	auipc	s5,0x18
    80201470:	ed4a8a93          	addi	s5,s5,-300 # 80219340 <stack_top>
    80201474:	00006a17          	auipc	s4,0x6
    80201478:	f5ca0a13          	addi	s4,s4,-164 # 802073d0 <etext+0x3d0>
    8020147c:	f3d48493          	addi	s1,s1,-195
    80201480:	0932                	slli	s2,s2,0xc
    80201482:	8522                	mv	a0,s0
    80201484:	85d2                	mv	a1,s4
    80201486:	e0bfe0ef          	jal	80200290 <initlock>
    8020148a:	413407b3          	sub	a5,s0,s3
    8020148e:	8791                	srai	a5,a5,0x4
    80201490:	029787b3          	mul	a5,a5,s1
    80201494:	00042a23          	sw	zero,20(s0)
    80201498:	08042a23          	sw	zero,148(s0)
    8020149c:	15040413          	addi	s0,s0,336
    802014a0:	2785                	addiw	a5,a5,1
    802014a2:	00d7979b          	slliw	a5,a5,0xd
    802014a6:	40f907b3          	sub	a5,s2,a5
    802014aa:	ecf43423          	sd	a5,-312(s0)
    802014ae:	fd541ae3          	bne	s0,s5,80201482 <proc_init+0x74>
    802014b2:	70e2                	ld	ra,56(sp)
    802014b4:	7442                	ld	s0,48(sp)
    802014b6:	74a2                	ld	s1,40(sp)
    802014b8:	7902                	ld	s2,32(sp)
    802014ba:	69e2                	ld	s3,24(sp)
    802014bc:	6a42                	ld	s4,16(sp)
    802014be:	6aa2                	ld	s5,8(sp)
    802014c0:	6121                	addi	sp,sp,64
    802014c2:	8082                	ret

00000000802014c4 <proc_pagetable>:
    802014c4:	1101                	addi	sp,sp,-32
    802014c6:	e426                	sd	s1,8(sp)
    802014c8:	ec06                	sd	ra,24(sp)
    802014ca:	e822                	sd	s0,16(sp)
    802014cc:	84aa                	mv	s1,a0
    802014ce:	99eff0ef          	jal	8020066c <create_pagetable>
    802014d2:	c531                	beqz	a0,8020151e <proc_pagetable+0x5a>
    802014d4:	040005b7          	lui	a1,0x4000
    802014d8:	15fd                	addi	a1,a1,-1 # 3ffffff <_entry-0x7c200001>
    802014da:	4729                	li	a4,10
    802014dc:	6685                	lui	a3,0x1
    802014de:	00005617          	auipc	a2,0x5
    802014e2:	b2260613          	addi	a2,a2,-1246 # 80206000 <_trampoline>
    802014e6:	05b2                	slli	a1,a1,0xc
    802014e8:	842a                	mv	s0,a0
    802014ea:	c56ff0ef          	jal	80200940 <map_page>
    802014ee:	02054563          	bltz	a0,80201518 <proc_pagetable+0x54>
    802014f2:	020005b7          	lui	a1,0x2000
    802014f6:	1404b603          	ld	a2,320(s1)
    802014fa:	15fd                	addi	a1,a1,-1 # 1ffffff <_entry-0x7e200001>
    802014fc:	4719                	li	a4,6
    802014fe:	6685                	lui	a3,0x1
    80201500:	05b6                	slli	a1,a1,0xd
    80201502:	8522                	mv	a0,s0
    80201504:	c3cff0ef          	jal	80200940 <map_page>
    80201508:	02054263          	bltz	a0,8020152c <proc_pagetable+0x68>
    8020150c:	60e2                	ld	ra,24(sp)
    8020150e:	8522                	mv	a0,s0
    80201510:	6442                	ld	s0,16(sp)
    80201512:	64a2                	ld	s1,8(sp)
    80201514:	6105                	addi	sp,sp,32
    80201516:	8082                	ret
    80201518:	8522                	mv	a0,s0
    8020151a:	972ff0ef          	jal	8020068c <destroy_pagetable>
    8020151e:	4401                	li	s0,0
    80201520:	60e2                	ld	ra,24(sp)
    80201522:	8522                	mv	a0,s0
    80201524:	6442                	ld	s0,16(sp)
    80201526:	64a2                	ld	s1,8(sp)
    80201528:	6105                	addi	sp,sp,32
    8020152a:	8082                	ret
    8020152c:	040005b7          	lui	a1,0x4000
    80201530:	15fd                	addi	a1,a1,-1 # 3ffffff <_entry-0x7c200001>
    80201532:	8522                	mv	a0,s0
    80201534:	4681                	li	a3,0
    80201536:	4605                	li	a2,1
    80201538:	05b2                	slli	a1,a1,0xc
    8020153a:	e9aff0ef          	jal	80200bd4 <unmap_page>
    8020153e:	8522                	mv	a0,s0
    80201540:	94cff0ef          	jal	8020068c <destroy_pagetable>
    80201544:	4401                	li	s0,0
    80201546:	bfe9                	j	80201520 <proc_pagetable+0x5c>

0000000080201548 <proc_freepagetable>:
    80201548:	040005b7          	lui	a1,0x4000
    8020154c:	15fd                	addi	a1,a1,-1 # 3ffffff <_entry-0x7c200001>
    8020154e:	1141                	addi	sp,sp,-16
    80201550:	4681                	li	a3,0
    80201552:	4605                	li	a2,1
    80201554:	05b2                	slli	a1,a1,0xc
    80201556:	e406                	sd	ra,8(sp)
    80201558:	e022                	sd	s0,0(sp)
    8020155a:	842a                	mv	s0,a0
    8020155c:	e78ff0ef          	jal	80200bd4 <unmap_page>
    80201560:	020005b7          	lui	a1,0x2000
    80201564:	15fd                	addi	a1,a1,-1 # 1ffffff <_entry-0x7e200001>
    80201566:	8522                	mv	a0,s0
    80201568:	4681                	li	a3,0
    8020156a:	4605                	li	a2,1
    8020156c:	05b6                	slli	a1,a1,0xd
    8020156e:	e66ff0ef          	jal	80200bd4 <unmap_page>
    80201572:	8522                	mv	a0,s0
    80201574:	6402                	ld	s0,0(sp)
    80201576:	60a2                	ld	ra,8(sp)
    80201578:	0141                	addi	sp,sp,16
    8020157a:	912ff06f          	j	8020068c <destroy_pagetable>

000000008020157e <free_process>:
    8020157e:	1101                	addi	sp,sp,-32
    80201580:	e822                	sd	s0,16(sp)
    80201582:	842a                	mv	s0,a0
    80201584:	14053503          	ld	a0,320(a0)
    80201588:	ec06                	sd	ra,24(sp)
    8020158a:	e426                	sd	s1,8(sp)
    8020158c:	c119                	beqz	a0,80201592 <free_process+0x14>
    8020158e:	e0ffe0ef          	jal	8020039c <free_page>
    80201592:	13843483          	ld	s1,312(s0)
    80201596:	14043023          	sd	zero,320(s0)
    8020159a:	c495                	beqz	s1,802015c6 <free_process+0x48>
    8020159c:	040005b7          	lui	a1,0x4000
    802015a0:	15fd                	addi	a1,a1,-1 # 3ffffff <_entry-0x7c200001>
    802015a2:	4681                	li	a3,0
    802015a4:	4605                	li	a2,1
    802015a6:	05b2                	slli	a1,a1,0xc
    802015a8:	8526                	mv	a0,s1
    802015aa:	e2aff0ef          	jal	80200bd4 <unmap_page>
    802015ae:	020005b7          	lui	a1,0x2000
    802015b2:	15fd                	addi	a1,a1,-1 # 1ffffff <_entry-0x7e200001>
    802015b4:	8526                	mv	a0,s1
    802015b6:	4681                	li	a3,0
    802015b8:	4605                	li	a2,1
    802015ba:	05b6                	slli	a1,a1,0xd
    802015bc:	e18ff0ef          	jal	80200bd4 <unmap_page>
    802015c0:	8526                	mv	a0,s1
    802015c2:	8caff0ef          	jal	8020068c <destroy_pagetable>
    802015c6:	00043823          	sd	zero,16(s0)
    802015ca:	60e2                	ld	ra,24(sp)
    802015cc:	12043c23          	sd	zero,312(s0)
    802015d0:	12043823          	sd	zero,304(s0)
    802015d4:	12043423          	sd	zero,296(s0)
    802015d8:	08043c23          	sd	zero,152(s0)
    802015dc:	08043823          	sd	zero,144(s0)
    802015e0:	6442                	ld	s0,16(sp)
    802015e2:	64a2                	ld	s1,8(sp)
    802015e4:	6105                	addi	sp,sp,32
    802015e6:	8082                	ret

00000000802015e8 <alloc_process>:
    802015e8:	7139                	addi	sp,sp,-64
    802015ea:	e456                	sd	s5,8(sp)
    802015ec:	00013a97          	auipc	s5,0x13
    802015f0:	954a8a93          	addi	s5,s5,-1708 # 80213f40 <proc_table>
    802015f4:	f822                	sd	s0,48(sp)
    802015f6:	f426                	sd	s1,40(sp)
    802015f8:	f04a                	sd	s2,32(sp)
    802015fa:	e852                	sd	s4,16(sp)
    802015fc:	fc06                	sd	ra,56(sp)
    802015fe:	ec4e                	sd	s3,24(sp)
    80201600:	8456                	mv	s0,s5
    80201602:	4901                	li	s2,0
    80201604:	4481                	li	s1,0
    80201606:	04000a13          	li	s4,64
    8020160a:	a811                	j	8020161e <alloc_process+0x36>
    8020160c:	2485                	addiw	s1,s1,1
    8020160e:	c9dfe0ef          	jal	802002aa <release>
    80201612:	15090913          	addi	s2,s2,336
    80201616:	15040413          	addi	s0,s0,336
    8020161a:	0b448d63          	beq	s1,s4,802016d4 <alloc_process+0xec>
    8020161e:	8522                	mv	a0,s0
    80201620:	c79fe0ef          	jal	80200298 <acquire>
    80201624:	485c                	lw	a5,20(s0)
    80201626:	89a2                	mv	s3,s0
    80201628:	8522                	mv	a0,s0
    8020162a:	f3ed                	bnez	a5,8020160c <alloc_process+0x24>
    8020162c:	15000793          	li	a5,336
    80201630:	02f484b3          	mul	s1,s1,a5
    80201634:	00007517          	auipc	a0,0x7
    80201638:	72c50513          	addi	a0,a0,1836 # 80208d60 <pid_lock>
    8020163c:	4785                	li	a5,1
    8020163e:	94d6                	add	s1,s1,s5
    80201640:	c8dc                	sw	a5,20(s1)
    80201642:	c57fe0ef          	jal	80200298 <acquire>
    80201646:	00007797          	auipc	a5,0x7
    8020164a:	23a78793          	addi	a5,a5,570 # 80208880 <next_pid>
    8020164e:	0007aa03          	lw	s4,0(a5)
    80201652:	00007517          	auipc	a0,0x7
    80201656:	70e50513          	addi	a0,a0,1806 # 80208d60 <pid_lock>
    8020165a:	001a071b          	addiw	a4,s4,1
    8020165e:	c398                	sw	a4,0(a5)
    80201660:	c4bfe0ef          	jal	802002aa <release>
    80201664:	0144a823          	sw	s4,16(s1)
    80201668:	c51fe0ef          	jal	802002b8 <alloc_page>
    8020166c:	14a4b023          	sd	a0,320(s1)
    80201670:	cd21                	beqz	a0,802016c8 <alloc_process+0xe0>
    80201672:	8522                	mv	a0,s0
    80201674:	e51ff0ef          	jal	802014c4 <proc_pagetable>
    80201678:	12a4bc23          	sd	a0,312(s1)
    8020167c:	c531                	beqz	a0,802016c8 <alloc_process+0xe0>
    8020167e:	02090513          	addi	a0,s2,32
    80201682:	07000613          	li	a2,112
    80201686:	4581                	li	a1,0
    80201688:	9556                	add	a0,a0,s5
    8020168a:	efffe0ef          	jal	80200588 <memset>
    8020168e:	6c9c                	ld	a5,24(s1)
    80201690:	6705                	lui	a4,0x1
    80201692:	00006517          	auipc	a0,0x6
    80201696:	d4650513          	addi	a0,a0,-698 # 802073d8 <etext+0x3d8>
    8020169a:	97ba                	add	a5,a5,a4
    8020169c:	00000717          	auipc	a4,0x0
    802016a0:	c6070713          	addi	a4,a4,-928 # 802012fc <forkret>
    802016a4:	f098                	sd	a4,32(s1)
    802016a6:	f49c                	sd	a5,40(s1)
    802016a8:	419010ef          	jal	802032c0 <namei>
    802016ac:	12a4b023          	sd	a0,288(s1)
    802016b0:	1204b423          	sd	zero,296(s1)
    802016b4:	70e2                	ld	ra,56(sp)
    802016b6:	7442                	ld	s0,48(sp)
    802016b8:	74a2                	ld	s1,40(sp)
    802016ba:	7902                	ld	s2,32(sp)
    802016bc:	6a42                	ld	s4,16(sp)
    802016be:	6aa2                	ld	s5,8(sp)
    802016c0:	854e                	mv	a0,s3
    802016c2:	69e2                	ld	s3,24(sp)
    802016c4:	6121                	addi	sp,sp,64
    802016c6:	8082                	ret
    802016c8:	8522                	mv	a0,s0
    802016ca:	eb5ff0ef          	jal	8020157e <free_process>
    802016ce:	8522                	mv	a0,s0
    802016d0:	bdbfe0ef          	jal	802002aa <release>
    802016d4:	4981                	li	s3,0
    802016d6:	bff9                	j	802016b4 <alloc_process+0xcc>

00000000802016d8 <create_process>:
    802016d8:	1101                	addi	sp,sp,-32
    802016da:	e426                	sd	s1,8(sp)
    802016dc:	ec06                	sd	ra,24(sp)
    802016de:	84aa                	mv	s1,a0
    802016e0:	f09ff0ef          	jal	802015e8 <alloc_process>
    802016e4:	c105                	beqz	a0,80201704 <create_process+0x2c>
    802016e6:	e822                	sd	s0,16(sp)
    802016e8:	4789                	li	a5,2
    802016ea:	f104                	sd	s1,32(a0)
    802016ec:	c95c                	sw	a5,20(a0)
    802016ee:	14053423          	sd	zero,328(a0)
    802016f2:	842a                	mv	s0,a0
    802016f4:	bb7fe0ef          	jal	802002aa <release>
    802016f8:	4808                	lw	a0,16(s0)
    802016fa:	6442                	ld	s0,16(sp)
    802016fc:	60e2                	ld	ra,24(sp)
    802016fe:	64a2                	ld	s1,8(sp)
    80201700:	6105                	addi	sp,sp,32
    80201702:	8082                	ret
    80201704:	557d                	li	a0,-1
    80201706:	bfdd                	j	802016fc <create_process+0x24>

0000000080201708 <exit_process>:
    80201708:	7139                	addi	sp,sp,-64
    8020170a:	ec4e                	sd	s3,24(sp)
    8020170c:	e05a                	sd	s6,0(sp)
    8020170e:	fc06                	sd	ra,56(sp)
    80201710:	f822                	sd	s0,48(sp)
    80201712:	f426                	sd	s1,40(sp)
    80201714:	00007797          	auipc	a5,0x7
    80201718:	1947b783          	ld	a5,404(a5) # 802088a8 <current_proc>
    8020171c:	89aa                	mv	s3,a0
    8020171e:	8b2e                	mv	s6,a1
    80201720:	0ca78b63          	beq	a5,a0,802017f6 <exit_process+0xee>
    80201724:	0a098413          	addi	s0,s3,160
    80201728:	12098493          	addi	s1,s3,288
    8020172c:	6008                	ld	a0,0(s0)
    8020172e:	c509                	beqz	a0,80201738 <exit_process+0x30>
    80201730:	4d7000ef          	jal	80202406 <fileclose>
    80201734:	00043023          	sd	zero,0(s0)
    80201738:	0421                	addi	s0,s0,8
    8020173a:	fe9419e3          	bne	s0,s1,8020172c <exit_process+0x24>
    8020173e:	64e020ef          	jal	80203d8c <begin_op>
    80201742:	1209b503          	ld	a0,288(s3)
    80201746:	4ae010ef          	jal	80202bf4 <iput>
    8020174a:	6a0020ef          	jal	80203dea <end_op>
    8020174e:	1289b783          	ld	a5,296(s3)
    80201752:	1209b023          	sd	zero,288(s3)
    80201756:	cba5                	beqz	a5,802017c6 <exit_process+0xbe>
    80201758:	00007517          	auipc	a0,0x7
    8020175c:	61850513          	addi	a0,a0,1560 # 80208d70 <wait_lock>
    80201760:	f04a                	sd	s2,32(sp)
    80201762:	e852                	sd	s4,16(sp)
    80201764:	e456                	sd	s5,8(sp)
    80201766:	00012417          	auipc	s0,0x12
    8020176a:	7da40413          	addi	s0,s0,2010 # 80213f40 <proc_table>
    8020176e:	b2bfe0ef          	jal	80200298 <acquire>
    80201772:	00018917          	auipc	s2,0x18
    80201776:	bce90913          	addi	s2,s2,-1074 # 80219340 <stack_top>
    8020177a:	1289ba03          	ld	s4,296(s3)
    8020177e:	4491                	li	s1,4
    80201780:	4a89                	li	s5,2
    80201782:	a039                	j	80201790 <exit_process+0x88>
    80201784:	15040413          	addi	s0,s0,336
    80201788:	b23fe0ef          	jal	802002aa <release>
    8020178c:	03240463          	beq	s0,s2,802017b4 <exit_process+0xac>
    80201790:	8522                	mv	a0,s0
    80201792:	b07fe0ef          	jal	80200298 <acquire>
    80201796:	485c                	lw	a5,20(s0)
    80201798:	8522                	mv	a0,s0
    8020179a:	fe9795e3          	bne	a5,s1,80201784 <exit_process+0x7c>
    8020179e:	6c5c                	ld	a5,152(s0)
    802017a0:	fefa12e3          	bne	s4,a5,80201784 <exit_process+0x7c>
    802017a4:	01542a23          	sw	s5,20(s0)
    802017a8:	15040413          	addi	s0,s0,336
    802017ac:	afffe0ef          	jal	802002aa <release>
    802017b0:	ff2410e3          	bne	s0,s2,80201790 <exit_process+0x88>
    802017b4:	00007517          	auipc	a0,0x7
    802017b8:	5bc50513          	addi	a0,a0,1468 # 80208d70 <wait_lock>
    802017bc:	aeffe0ef          	jal	802002aa <release>
    802017c0:	7902                	ld	s2,32(sp)
    802017c2:	6a42                	ld	s4,16(sp)
    802017c4:	6aa2                	ld	s5,8(sp)
    802017c6:	854e                	mv	a0,s3
    802017c8:	ad1fe0ef          	jal	80200298 <acquire>
    802017cc:	4795                	li	a5,5
    802017ce:	0969a823          	sw	s6,144(s3)
    802017d2:	854e                	mv	a0,s3
    802017d4:	00f9aa23          	sw	a5,20(s3)
    802017d8:	ad3fe0ef          	jal	802002aa <release>
    802017dc:	7442                	ld	s0,48(sp)
    802017de:	70e2                	ld	ra,56(sp)
    802017e0:	74a2                	ld	s1,40(sp)
    802017e2:	6b02                	ld	s6,0(sp)
    802017e4:	02098513          	addi	a0,s3,32
    802017e8:	69e2                	ld	s3,24(sp)
    802017ea:	00007597          	auipc	a1,0x7
    802017ee:	59658593          	addi	a1,a1,1430 # 80208d80 <sched_ctx>
    802017f2:	6121                	addi	sp,sp,64
    802017f4:	a5f9                	j	80201ec2 <swtch>
    802017f6:	00007797          	auipc	a5,0x7
    802017fa:	0a07b923          	sd	zero,178(a5) # 802088a8 <current_proc>
    802017fe:	b71d                	j	80201724 <exit_process+0x1c>

0000000080201800 <set_proc_priority>:
    80201800:	7139                	addi	sp,sp,-64
    80201802:	e852                	sd	s4,16(sp)
    80201804:	00012a17          	auipc	s4,0x12
    80201808:	73ca0a13          	addi	s4,s4,1852 # 80213f40 <proc_table>
    8020180c:	f822                	sd	s0,48(sp)
    8020180e:	f426                	sd	s1,40(sp)
    80201810:	f04a                	sd	s2,32(sp)
    80201812:	ec4e                	sd	s3,24(sp)
    80201814:	e456                	sd	s5,8(sp)
    80201816:	fc06                	sd	ra,56(sp)
    80201818:	892a                	mv	s2,a0
    8020181a:	8aae                	mv	s5,a1
    8020181c:	8452                	mv	s0,s4
    8020181e:	4481                	li	s1,0
    80201820:	04000993          	li	s3,64
    80201824:	a801                	j	80201834 <set_proc_priority+0x34>
    80201826:	2485                	addiw	s1,s1,1
    80201828:	a83fe0ef          	jal	802002aa <release>
    8020182c:	15040413          	addi	s0,s0,336
    80201830:	03348a63          	beq	s1,s3,80201864 <set_proc_priority+0x64>
    80201834:	8522                	mv	a0,s0
    80201836:	a63fe0ef          	jal	80200298 <acquire>
    8020183a:	481c                	lw	a5,16(s0)
    8020183c:	8522                	mv	a0,s0
    8020183e:	ff2794e3          	bne	a5,s2,80201826 <set_proc_priority+0x26>
    80201842:	15000793          	li	a5,336
    80201846:	02f484b3          	mul	s1,s1,a5
    8020184a:	7442                	ld	s0,48(sp)
    8020184c:	70e2                	ld	ra,56(sp)
    8020184e:	7902                	ld	s2,32(sp)
    80201850:	69e2                	ld	s3,24(sp)
    80201852:	9a26                	add	s4,s4,s1
    80201854:	095a2a23          	sw	s5,148(s4)
    80201858:	74a2                	ld	s1,40(sp)
    8020185a:	6a42                	ld	s4,16(sp)
    8020185c:	6aa2                	ld	s5,8(sp)
    8020185e:	6121                	addi	sp,sp,64
    80201860:	a4bfe06f          	j	802002aa <release>
    80201864:	70e2                	ld	ra,56(sp)
    80201866:	7442                	ld	s0,48(sp)
    80201868:	74a2                	ld	s1,40(sp)
    8020186a:	7902                	ld	s2,32(sp)
    8020186c:	69e2                	ld	s3,24(sp)
    8020186e:	6a42                	ld	s4,16(sp)
    80201870:	6aa2                	ld	s5,8(sp)
    80201872:	6121                	addi	sp,sp,64
    80201874:	8082                	ret

0000000080201876 <scheduler_priority>:
    80201876:	715d                	addi	sp,sp,-80
    80201878:	fc26                	sd	s1,56(sp)
    8020187a:	f84a                	sd	s2,48(sp)
    8020187c:	ec56                	sd	s5,24(sp)
    8020187e:	e85a                	sd	s6,16(sp)
    80201880:	e45e                	sd	s7,8(sp)
    80201882:	e486                	sd	ra,72(sp)
    80201884:	e0a2                	sd	s0,64(sp)
    80201886:	f44e                	sd	s3,40(sp)
    80201888:	f052                	sd	s4,32(sp)
    8020188a:	00018917          	auipc	s2,0x18
    8020188e:	ab690913          	addi	s2,s2,-1354 # 80219340 <stack_top>
    80201892:	4489                	li	s1,2
    80201894:	4b8d                	li	s7,3
    80201896:	00007b17          	auipc	s6,0x7
    8020189a:	012b0b13          	addi	s6,s6,18 # 802088a8 <current_proc>
    8020189e:	00007a97          	auipc	s5,0x7
    802018a2:	4e2a8a93          	addi	s5,s5,1250 # 80208d80 <sched_ctx>
    802018a6:	100027f3          	csrr	a5,sstatus
    802018aa:	0027e793          	ori	a5,a5,2
    802018ae:	10079073          	csrw	sstatus,a5
    802018b2:	59fd                	li	s3,-1
    802018b4:	4a01                	li	s4,0
    802018b6:	00012417          	auipc	s0,0x12
    802018ba:	68a40413          	addi	s0,s0,1674 # 80213f40 <proc_table>
    802018be:	a039                	j	802018cc <scheduler_priority+0x56>
    802018c0:	15040413          	addi	s0,s0,336
    802018c4:	9e7fe0ef          	jal	802002aa <release>
    802018c8:	03240563          	beq	s0,s2,802018f2 <scheduler_priority+0x7c>
    802018cc:	8522                	mv	a0,s0
    802018ce:	9cbfe0ef          	jal	80200298 <acquire>
    802018d2:	485c                	lw	a5,20(s0)
    802018d4:	8522                	mv	a0,s0
    802018d6:	fe9795e3          	bne	a5,s1,802018c0 <scheduler_priority+0x4a>
    802018da:	09442783          	lw	a5,148(s0)
    802018de:	fef9d1e3          	bge	s3,a5,802018c0 <scheduler_priority+0x4a>
    802018e2:	8a22                	mv	s4,s0
    802018e4:	15040413          	addi	s0,s0,336
    802018e8:	89be                	mv	s3,a5
    802018ea:	9c1fe0ef          	jal	802002aa <release>
    802018ee:	fd241fe3          	bne	s0,s2,802018cc <scheduler_priority+0x56>
    802018f2:	040a0363          	beqz	s4,80201938 <scheduler_priority+0xc2>
    802018f6:	8552                	mv	a0,s4
    802018f8:	9a1fe0ef          	jal	80200298 <acquire>
    802018fc:	014a2783          	lw	a5,20(s4)
    80201900:	00978663          	beq	a5,s1,8020190c <scheduler_priority+0x96>
    80201904:	8552                	mv	a0,s4
    80201906:	9a5fe0ef          	jal	802002aa <release>
    8020190a:	bf71                	j	802018a6 <scheduler_priority+0x30>
    8020190c:	094a2783          	lw	a5,148(s4)
    80201910:	8552                	mv	a0,s4
    80201912:	017a2a23          	sw	s7,20(s4)
    80201916:	37f5                	addiw	a5,a5,-3
    80201918:	08fa2a23          	sw	a5,148(s4)
    8020191c:	014b3023          	sd	s4,0(s6)
    80201920:	98bfe0ef          	jal	802002aa <release>
    80201924:	020a0593          	addi	a1,s4,32
    80201928:	8556                	mv	a0,s5
    8020192a:	598000ef          	jal	80201ec2 <swtch>
    8020192e:	00007797          	auipc	a5,0x7
    80201932:	f607bd23          	sd	zero,-134(a5) # 802088a8 <current_proc>
    80201936:	bf85                	j	802018a6 <scheduler_priority+0x30>
    80201938:	60a6                	ld	ra,72(sp)
    8020193a:	6406                	ld	s0,64(sp)
    8020193c:	74e2                	ld	s1,56(sp)
    8020193e:	7942                	ld	s2,48(sp)
    80201940:	79a2                	ld	s3,40(sp)
    80201942:	7a02                	ld	s4,32(sp)
    80201944:	6ae2                	ld	s5,24(sp)
    80201946:	6b42                	ld	s6,16(sp)
    80201948:	6ba2                	ld	s7,8(sp)
    8020194a:	6161                	addi	sp,sp,80
    8020194c:	8082                	ret

000000008020194e <scheduler_rotate>:
    8020194e:	711d                	addi	sp,sp,-96
    80201950:	e4a6                	sd	s1,72(sp)
    80201952:	e0ca                	sd	s2,64(sp)
    80201954:	fc4e                	sd	s3,56(sp)
    80201956:	f852                	sd	s4,48(sp)
    80201958:	f456                	sd	s5,40(sp)
    8020195a:	f05a                	sd	s6,32(sp)
    8020195c:	e862                	sd	s8,16(sp)
    8020195e:	ec86                	sd	ra,88(sp)
    80201960:	e8a2                	sd	s0,80(sp)
    80201962:	ec5e                	sd	s7,24(sp)
    80201964:	e466                	sd	s9,8(sp)
    80201966:	e06a                	sd	s10,0(sp)
    80201968:	4c01                	li	s8,0
    8020196a:	00012917          	auipc	s2,0x12
    8020196e:	5d690913          	addi	s2,s2,1494 # 80213f40 <proc_table>
    80201972:	15000993          	li	s3,336
    80201976:	4489                	li	s1,2
    80201978:	4b0d                	li	s6,3
    8020197a:	00007a97          	auipc	s5,0x7
    8020197e:	f2ea8a93          	addi	s5,s5,-210 # 802088a8 <current_proc>
    80201982:	00007a17          	auipc	s4,0x7
    80201986:	3fea0a13          	addi	s4,s4,1022 # 80208d80 <sched_ctx>
    8020198a:	100027f3          	csrr	a5,sstatus
    8020198e:	0027e793          	ori	a5,a5,2
    80201992:	10079073          	csrw	sstatus,a5
    80201996:	000c0c9b          	sext.w	s9,s8
    8020199a:	040c0c1b          	addiw	s8,s8,64
    8020199e:	a031                	j	802019aa <scheduler_rotate+0x5c>
    802019a0:	2c85                	addiw	s9,s9,1
    802019a2:	909fe0ef          	jal	802002aa <release>
    802019a6:	098c8263          	beq	s9,s8,80201a2a <scheduler_rotate+0xdc>
    802019aa:	41fcd79b          	sraiw	a5,s9,0x1f
    802019ae:	01a7d79b          	srliw	a5,a5,0x1a
    802019b2:	0197843b          	addw	s0,a5,s9
    802019b6:	03f47413          	andi	s0,s0,63
    802019ba:	40f40bbb          	subw	s7,s0,a5
    802019be:	845e                	mv	s0,s7
    802019c0:	033b8bb3          	mul	s7,s7,s3
    802019c4:	01790d33          	add	s10,s2,s7
    802019c8:	856a                	mv	a0,s10
    802019ca:	8cffe0ef          	jal	80200298 <acquire>
    802019ce:	014d2783          	lw	a5,20(s10)
    802019d2:	856a                	mv	a0,s10
    802019d4:	fc9796e3          	bne	a5,s1,802019a0 <scheduler_rotate+0x52>
    802019d8:	2405                	addiw	s0,s0,1
    802019da:	41f4579b          	sraiw	a5,s0,0x1f
    802019de:	01a7d79b          	srliw	a5,a5,0x1a
    802019e2:	9c3d                	addw	s0,s0,a5
    802019e4:	03f47413          	andi	s0,s0,63
    802019e8:	40f40c3b          	subw	s8,s0,a5
    802019ec:	8bffe0ef          	jal	802002aa <release>
    802019f0:	856a                	mv	a0,s10
    802019f2:	8a7fe0ef          	jal	80200298 <acquire>
    802019f6:	014d2783          	lw	a5,20(s10)
    802019fa:	00978663          	beq	a5,s1,80201a06 <scheduler_rotate+0xb8>
    802019fe:	856a                	mv	a0,s10
    80201a00:	8abfe0ef          	jal	802002aa <release>
    80201a04:	b759                	j	8020198a <scheduler_rotate+0x3c>
    80201a06:	856a                	mv	a0,s10
    80201a08:	016d2a23          	sw	s6,20(s10)
    80201a0c:	01aab023          	sd	s10,0(s5)
    80201a10:	89bfe0ef          	jal	802002aa <release>
    80201a14:	020b8593          	addi	a1,s7,32 # 1020 <_entry-0x801fefe0>
    80201a18:	95ca                	add	a1,a1,s2
    80201a1a:	8552                	mv	a0,s4
    80201a1c:	4a6000ef          	jal	80201ec2 <swtch>
    80201a20:	00007797          	auipc	a5,0x7
    80201a24:	e807b423          	sd	zero,-376(a5) # 802088a8 <current_proc>
    80201a28:	b78d                	j	8020198a <scheduler_rotate+0x3c>
    80201a2a:	60e6                	ld	ra,88(sp)
    80201a2c:	6446                	ld	s0,80(sp)
    80201a2e:	64a6                	ld	s1,72(sp)
    80201a30:	6906                	ld	s2,64(sp)
    80201a32:	79e2                	ld	s3,56(sp)
    80201a34:	7a42                	ld	s4,48(sp)
    80201a36:	7aa2                	ld	s5,40(sp)
    80201a38:	7b02                	ld	s6,32(sp)
    80201a3a:	6be2                	ld	s7,24(sp)
    80201a3c:	6c42                	ld	s8,16(sp)
    80201a3e:	6ca2                	ld	s9,8(sp)
    80201a40:	6d02                	ld	s10,0(sp)
    80201a42:	6125                	addi	sp,sp,96
    80201a44:	8082                	ret

0000000080201a46 <yield>:
    80201a46:	1141                	addi	sp,sp,-16
    80201a48:	e022                	sd	s0,0(sp)
    80201a4a:	00007417          	auipc	s0,0x7
    80201a4e:	e5e43403          	ld	s0,-418(s0) # 802088a8 <current_proc>
    80201a52:	8522                	mv	a0,s0
    80201a54:	e406                	sd	ra,8(sp)
    80201a56:	843fe0ef          	jal	80200298 <acquire>
    80201a5a:	4789                	li	a5,2
    80201a5c:	8522                	mv	a0,s0
    80201a5e:	c85c                	sw	a5,20(s0)
    80201a60:	84bfe0ef          	jal	802002aa <release>
    80201a64:	02040513          	addi	a0,s0,32
    80201a68:	6402                	ld	s0,0(sp)
    80201a6a:	60a2                	ld	ra,8(sp)
    80201a6c:	00007597          	auipc	a1,0x7
    80201a70:	31458593          	addi	a1,a1,788 # 80208d80 <sched_ctx>
    80201a74:	0141                	addi	sp,sp,16
    80201a76:	a1b1                	j	80201ec2 <swtch>

0000000080201a78 <sleep>:
    80201a78:	1101                	addi	sp,sp,-32
    80201a7a:	e822                	sd	s0,16(sp)
    80201a7c:	e426                	sd	s1,8(sp)
    80201a7e:	ec06                	sd	ra,24(sp)
    80201a80:	00007417          	auipc	s0,0x7
    80201a84:	e2843403          	ld	s0,-472(s0) # 802088a8 <current_proc>
    80201a88:	84ae                	mv	s1,a1
    80201a8a:	c821                	beqz	s0,80201ada <sleep+0x62>
    80201a8c:	e04a                	sd	s2,0(sp)
    80201a8e:	892a                	mv	s2,a0
    80201a90:	8522                	mv	a0,s0
    80201a92:	807fe0ef          	jal	80200298 <acquire>
    80201a96:	8526                	mv	a0,s1
    80201a98:	813fe0ef          	jal	802002aa <release>
    80201a9c:	4791                	li	a5,4
    80201a9e:	c85c                	sw	a5,20(s0)
    80201aa0:	09243c23          	sd	s2,152(s0)
    80201aa4:	8522                	mv	a0,s0
    80201aa6:	805fe0ef          	jal	802002aa <release>
    80201aaa:	00007597          	auipc	a1,0x7
    80201aae:	2d658593          	addi	a1,a1,726 # 80208d80 <sched_ctx>
    80201ab2:	02040513          	addi	a0,s0,32
    80201ab6:	40c000ef          	jal	80201ec2 <swtch>
    80201aba:	8522                	mv	a0,s0
    80201abc:	fdcfe0ef          	jal	80200298 <acquire>
    80201ac0:	8522                	mv	a0,s0
    80201ac2:	08043c23          	sd	zero,152(s0)
    80201ac6:	fe4fe0ef          	jal	802002aa <release>
    80201aca:	6442                	ld	s0,16(sp)
    80201acc:	6902                	ld	s2,0(sp)
    80201ace:	60e2                	ld	ra,24(sp)
    80201ad0:	8526                	mv	a0,s1
    80201ad2:	64a2                	ld	s1,8(sp)
    80201ad4:	6105                	addi	sp,sp,32
    80201ad6:	fc2fe06f          	j	80200298 <acquire>
    80201ada:	6442                	ld	s0,16(sp)
    80201adc:	60e2                	ld	ra,24(sp)
    80201ade:	64a2                	ld	s1,8(sp)
    80201ae0:	852e                	mv	a0,a1
    80201ae2:	6105                	addi	sp,sp,32
    80201ae4:	fc6fe06f          	j	802002aa <release>

0000000080201ae8 <wait_process>:
    80201ae8:	715d                	addi	sp,sp,-80
    80201aea:	ec56                	sd	s5,24(sp)
    80201aec:	8aaa                	mv	s5,a0
    80201aee:	00007517          	auipc	a0,0x7
    80201af2:	28250513          	addi	a0,a0,642 # 80208d70 <wait_lock>
    80201af6:	f44e                	sd	s3,40(sp)
    80201af8:	f052                	sd	s4,32(sp)
    80201afa:	e85a                	sd	s6,16(sp)
    80201afc:	e45e                	sd	s7,8(sp)
    80201afe:	e062                	sd	s8,0(sp)
    80201b00:	e486                	sd	ra,72(sp)
    80201b02:	e0a2                	sd	s0,64(sp)
    80201b04:	fc26                	sd	s1,56(sp)
    80201b06:	f84a                	sd	s2,48(sp)
    80201b08:	00007997          	auipc	s3,0x7
    80201b0c:	da09b983          	ld	s3,-608(s3) # 802088a8 <current_proc>
    80201b10:	00012b17          	auipc	s6,0x12
    80201b14:	430b0b13          	addi	s6,s6,1072 # 80213f40 <proc_table>
    80201b18:	f80fe0ef          	jal	80200298 <acquire>
    80201b1c:	4b95                	li	s7,5
    80201b1e:	4c09                	li	s8,2
    80201b20:	04000a13          	li	s4,64
    80201b24:	00012417          	auipc	s0,0x12
    80201b28:	41c40413          	addi	s0,s0,1052 # 80213f40 <proc_table>
    80201b2c:	4901                	li	s2,0
    80201b2e:	4481                	li	s1,0
    80201b30:	4701                	li	a4,0
    80201b32:	a801                	j	80201b42 <wait_process+0x5a>
    80201b34:	2485                	addiw	s1,s1,1
    80201b36:	15040413          	addi	s0,s0,336
    80201b3a:	15090913          	addi	s2,s2,336
    80201b3e:	03448963          	beq	s1,s4,80201b70 <wait_process+0x88>
    80201b42:	12843783          	ld	a5,296(s0)
    80201b46:	ff3797e3          	bne	a5,s3,80201b34 <wait_process+0x4c>
    80201b4a:	8522                	mv	a0,s0
    80201b4c:	f4cfe0ef          	jal	80200298 <acquire>
    80201b50:	485c                	lw	a5,20(s0)
    80201b52:	8522                	mv	a0,s0
    80201b54:	03778763          	beq	a5,s7,80201b82 <wait_process+0x9a>
    80201b58:	03878563          	beq	a5,s8,80201b82 <wait_process+0x9a>
    80201b5c:	f4efe0ef          	jal	802002aa <release>
    80201b60:	2485                	addiw	s1,s1,1
    80201b62:	4705                	li	a4,1
    80201b64:	15040413          	addi	s0,s0,336
    80201b68:	15090913          	addi	s2,s2,336
    80201b6c:	fd449be3          	bne	s1,s4,80201b42 <wait_process+0x5a>
    80201b70:	c72d                	beqz	a4,80201bda <wait_process+0xf2>
    80201b72:	00007597          	auipc	a1,0x7
    80201b76:	1fe58593          	addi	a1,a1,510 # 80208d70 <wait_lock>
    80201b7a:	854e                	mv	a0,s3
    80201b7c:	efdff0ef          	jal	80201a78 <sleep>
    80201b80:	b755                	j	80201b24 <wait_process+0x3c>
    80201b82:	15000793          	li	a5,336
    80201b86:	02f487b3          	mul	a5,s1,a5
    80201b8a:	97da                	add	a5,a5,s6
    80201b8c:	4b84                	lw	s1,16(a5)
    80201b8e:	000a8d63          	beqz	s5,80201ba8 <wait_process+0xc0>
    80201b92:	1389b503          	ld	a0,312(s3)
    80201b96:	09090613          	addi	a2,s2,144
    80201b9a:	4691                	li	a3,4
    80201b9c:	965a                	add	a2,a2,s6
    80201b9e:	85d6                	mv	a1,s5
    80201ba0:	84cff0ef          	jal	80200bec <copyout>
    80201ba4:	04054363          	bltz	a0,80201bea <wait_process+0x102>
    80201ba8:	8522                	mv	a0,s0
    80201baa:	9d5ff0ef          	jal	8020157e <free_process>
    80201bae:	8522                	mv	a0,s0
    80201bb0:	efafe0ef          	jal	802002aa <release>
    80201bb4:	00007517          	auipc	a0,0x7
    80201bb8:	1bc50513          	addi	a0,a0,444 # 80208d70 <wait_lock>
    80201bbc:	eeefe0ef          	jal	802002aa <release>
    80201bc0:	60a6                	ld	ra,72(sp)
    80201bc2:	6406                	ld	s0,64(sp)
    80201bc4:	7942                	ld	s2,48(sp)
    80201bc6:	79a2                	ld	s3,40(sp)
    80201bc8:	7a02                	ld	s4,32(sp)
    80201bca:	6ae2                	ld	s5,24(sp)
    80201bcc:	6b42                	ld	s6,16(sp)
    80201bce:	6ba2                	ld	s7,8(sp)
    80201bd0:	6c02                	ld	s8,0(sp)
    80201bd2:	8526                	mv	a0,s1
    80201bd4:	74e2                	ld	s1,56(sp)
    80201bd6:	6161                	addi	sp,sp,80
    80201bd8:	8082                	ret
    80201bda:	00007517          	auipc	a0,0x7
    80201bde:	19650513          	addi	a0,a0,406 # 80208d70 <wait_lock>
    80201be2:	ec8fe0ef          	jal	802002aa <release>
    80201be6:	54fd                	li	s1,-1
    80201be8:	bfe1                	j	80201bc0 <wait_process+0xd8>
    80201bea:	8522                	mv	a0,s0
    80201bec:	ebefe0ef          	jal	802002aa <release>
    80201bf0:	00007517          	auipc	a0,0x7
    80201bf4:	18050513          	addi	a0,a0,384 # 80208d70 <wait_lock>
    80201bf8:	eb2fe0ef          	jal	802002aa <release>
    80201bfc:	54fd                	li	s1,-1
    80201bfe:	b7c9                	j	80201bc0 <wait_process+0xd8>

0000000080201c00 <wakeup>:
    80201c00:	7179                	addi	sp,sp,-48
    80201c02:	f022                	sd	s0,32(sp)
    80201c04:	ec26                	sd	s1,24(sp)
    80201c06:	e84a                	sd	s2,16(sp)
    80201c08:	e44e                	sd	s3,8(sp)
    80201c0a:	e052                	sd	s4,0(sp)
    80201c0c:	f406                	sd	ra,40(sp)
    80201c0e:	89aa                	mv	s3,a0
    80201c10:	00012417          	auipc	s0,0x12
    80201c14:	33040413          	addi	s0,s0,816 # 80213f40 <proc_table>
    80201c18:	00017917          	auipc	s2,0x17
    80201c1c:	72890913          	addi	s2,s2,1832 # 80219340 <stack_top>
    80201c20:	4491                	li	s1,4
    80201c22:	4a09                	li	s4,2
    80201c24:	a039                	j	80201c32 <wakeup+0x32>
    80201c26:	15040413          	addi	s0,s0,336
    80201c2a:	e80fe0ef          	jal	802002aa <release>
    80201c2e:	03240463          	beq	s0,s2,80201c56 <wakeup+0x56>
    80201c32:	8522                	mv	a0,s0
    80201c34:	e64fe0ef          	jal	80200298 <acquire>
    80201c38:	485c                	lw	a5,20(s0)
    80201c3a:	8522                	mv	a0,s0
    80201c3c:	fe9795e3          	bne	a5,s1,80201c26 <wakeup+0x26>
    80201c40:	6c5c                	ld	a5,152(s0)
    80201c42:	ff3792e3          	bne	a5,s3,80201c26 <wakeup+0x26>
    80201c46:	01442a23          	sw	s4,20(s0)
    80201c4a:	15040413          	addi	s0,s0,336
    80201c4e:	e5cfe0ef          	jal	802002aa <release>
    80201c52:	ff2410e3          	bne	s0,s2,80201c32 <wakeup+0x32>
    80201c56:	70a2                	ld	ra,40(sp)
    80201c58:	7402                	ld	s0,32(sp)
    80201c5a:	64e2                	ld	s1,24(sp)
    80201c5c:	6942                	ld	s2,16(sp)
    80201c5e:	69a2                	ld	s3,8(sp)
    80201c60:	6a02                	ld	s4,0(sp)
    80201c62:	6145                	addi	sp,sp,48
    80201c64:	8082                	ret

0000000080201c66 <fork_process>:
    80201c66:	7179                	addi	sp,sp,-48
    80201c68:	e052                	sd	s4,0(sp)
    80201c6a:	f406                	sd	ra,40(sp)
    80201c6c:	f022                	sd	s0,32(sp)
    80201c6e:	00007a17          	auipc	s4,0x7
    80201c72:	c3aa3a03          	ld	s4,-966(s4) # 802088a8 <current_proc>
    80201c76:	973ff0ef          	jal	802015e8 <alloc_process>
    80201c7a:	0c050c63          	beqz	a0,80201d52 <fork_process+0xec>
    80201c7e:	e44e                	sd	s3,8(sp)
    80201c80:	13853583          	ld	a1,312(a0)
    80201c84:	89aa                	mv	s3,a0
    80201c86:	130a3603          	ld	a2,304(s4)
    80201c8a:	138a3503          	ld	a0,312(s4)
    80201c8e:	fedfe0ef          	jal	80200c7a <copy_pagetable>
    80201c92:	0a054963          	bltz	a0,80201d44 <fork_process+0xde>
    80201c96:	130a3703          	ld	a4,304(s4)
    80201c9a:	140a3783          	ld	a5,320(s4)
    80201c9e:	1409b883          	ld	a7,320(s3)
    80201ca2:	ec26                	sd	s1,24(sp)
    80201ca4:	e84a                	sd	s2,16(sp)
    80201ca6:	12e9b823          	sd	a4,304(s3)
    80201caa:	12078813          	addi	a6,a5,288
    80201cae:	8746                	mv	a4,a7
    80201cb0:	6388                	ld	a0,0(a5)
    80201cb2:	678c                	ld	a1,8(a5)
    80201cb4:	6b90                	ld	a2,16(a5)
    80201cb6:	6f94                	ld	a3,24(a5)
    80201cb8:	e308                	sd	a0,0(a4)
    80201cba:	e70c                	sd	a1,8(a4)
    80201cbc:	eb10                	sd	a2,16(a4)
    80201cbe:	ef14                	sd	a3,24(a4)
    80201cc0:	02078793          	addi	a5,a5,32
    80201cc4:	02070713          	addi	a4,a4,32
    80201cc8:	ff0794e3          	bne	a5,a6,80201cb0 <fork_process+0x4a>
    80201ccc:	0608b823          	sd	zero,112(a7)
    80201cd0:	0a0a0413          	addi	s0,s4,160
    80201cd4:	0a098493          	addi	s1,s3,160
    80201cd8:	120a0913          	addi	s2,s4,288
    80201cdc:	6008                	ld	a0,0(s0)
    80201cde:	c501                	beqz	a0,80201ce6 <fork_process+0x80>
    80201ce0:	6e6000ef          	jal	802023c6 <filedup>
    80201ce4:	e088                	sd	a0,0(s1)
    80201ce6:	0421                	addi	s0,s0,8
    80201ce8:	04a1                	addi	s1,s1,8
    80201cea:	ff2419e3          	bne	s0,s2,80201cdc <fork_process+0x76>
    80201cee:	120a3503          	ld	a0,288(s4)
    80201cf2:	55b000ef          	jal	80202a4c <idup>
    80201cf6:	12a9b023          	sd	a0,288(s3)
    80201cfa:	854e                	mv	a0,s3
    80201cfc:	0109a403          	lw	s0,16(s3)
    80201d00:	daafe0ef          	jal	802002aa <release>
    80201d04:	00007517          	auipc	a0,0x7
    80201d08:	06c50513          	addi	a0,a0,108 # 80208d70 <wait_lock>
    80201d0c:	d8cfe0ef          	jal	80200298 <acquire>
    80201d10:	00007517          	auipc	a0,0x7
    80201d14:	06050513          	addi	a0,a0,96 # 80208d70 <wait_lock>
    80201d18:	1349b423          	sd	s4,296(s3)
    80201d1c:	d8efe0ef          	jal	802002aa <release>
    80201d20:	854e                	mv	a0,s3
    80201d22:	d76fe0ef          	jal	80200298 <acquire>
    80201d26:	4789                	li	a5,2
    80201d28:	00f9aa23          	sw	a5,20(s3)
    80201d2c:	854e                	mv	a0,s3
    80201d2e:	d7cfe0ef          	jal	802002aa <release>
    80201d32:	64e2                	ld	s1,24(sp)
    80201d34:	6942                	ld	s2,16(sp)
    80201d36:	69a2                	ld	s3,8(sp)
    80201d38:	70a2                	ld	ra,40(sp)
    80201d3a:	8522                	mv	a0,s0
    80201d3c:	7402                	ld	s0,32(sp)
    80201d3e:	6a02                	ld	s4,0(sp)
    80201d40:	6145                	addi	sp,sp,48
    80201d42:	8082                	ret
    80201d44:	854e                	mv	a0,s3
    80201d46:	839ff0ef          	jal	8020157e <free_process>
    80201d4a:	854e                	mv	a0,s3
    80201d4c:	d5efe0ef          	jal	802002aa <release>
    80201d50:	69a2                	ld	s3,8(sp)
    80201d52:	547d                	li	s0,-1
    80201d54:	b7d5                	j	80201d38 <fork_process+0xd2>

0000000080201d56 <scheduler_priority_extend>:
    80201d56:	7159                	addi	sp,sp,-112
    80201d58:	f062                	sd	s8,32(sp)
    80201d5a:	000f4c37          	lui	s8,0xf4
    80201d5e:	eca6                	sd	s1,88(sp)
    80201d60:	e8ca                	sd	s2,80(sp)
    80201d62:	f45e                	sd	s7,40(sp)
    80201d64:	ec66                	sd	s9,24(sp)
    80201d66:	e86a                	sd	s10,16(sp)
    80201d68:	e46e                	sd	s11,8(sp)
    80201d6a:	f486                	sd	ra,104(sp)
    80201d6c:	f0a2                	sd	s0,96(sp)
    80201d6e:	e4ce                	sd	s3,72(sp)
    80201d70:	e0d2                	sd	s4,64(sp)
    80201d72:	fc56                	sd	s5,56(sp)
    80201d74:	f85a                	sd	s6,48(sp)
    80201d76:	8caa                	mv	s9,a0
    80201d78:	00017917          	auipc	s2,0x17
    80201d7c:	5c890913          	addi	s2,s2,1480 # 80219340 <stack_top>
    80201d80:	240c0c13          	addi	s8,s8,576 # f4240 <_entry-0x8010bdc0>
    80201d84:	4489                	li	s1,2
    80201d86:	4b85                	li	s7,1
    80201d88:	4d8d                	li	s11,3
    80201d8a:	00007d17          	auipc	s10,0x7
    80201d8e:	b1ed0d13          	addi	s10,s10,-1250 # 802088a8 <current_proc>
    80201d92:	100027f3          	csrr	a5,sstatus
    80201d96:	0027e793          	ori	a5,a5,2
    80201d9a:	10079073          	csrw	sstatus,a5
    80201d9e:	59fd                	li	s3,-1
    80201da0:	8b62                	mv	s6,s8
    80201da2:	8ae2                	mv	s5,s8
    80201da4:	4a01                	li	s4,0
    80201da6:	00012417          	auipc	s0,0x12
    80201daa:	19a40413          	addi	s0,s0,410 # 80213f40 <proc_table>
    80201dae:	a801                	j	80201dbe <scheduler_priority_extend+0x68>
    80201db0:	8522                	mv	a0,s0
    80201db2:	15040413          	addi	s0,s0,336
    80201db6:	cf4fe0ef          	jal	802002aa <release>
    80201dba:	03240963          	beq	s0,s2,80201dec <scheduler_priority_extend+0x96>
    80201dbe:	8522                	mv	a0,s0
    80201dc0:	cd8fe0ef          	jal	80200298 <acquire>
    80201dc4:	485c                	lw	a5,20(s0)
    80201dc6:	fe9795e3          	bne	a5,s1,80201db0 <scheduler_priority_extend+0x5a>
    80201dca:	09442783          	lw	a5,148(s0)
    80201dce:	02f9de63          	bge	s3,a5,80201e0a <scheduler_priority_extend+0xb4>
    80201dd2:	14842a83          	lw	s5,328(s0)
    80201dd6:	01042b03          	lw	s6,16(s0)
    80201dda:	8522                	mv	a0,s0
    80201ddc:	8a22                	mv	s4,s0
    80201dde:	15040413          	addi	s0,s0,336
    80201de2:	89be                	mv	s3,a5
    80201de4:	cc6fe0ef          	jal	802002aa <release>
    80201de8:	fd241be3          	bne	s0,s2,80201dbe <scheduler_priority_extend+0x68>
    80201dec:	0a0a0c63          	beqz	s4,80201ea4 <scheduler_priority_extend+0x14e>
    80201df0:	060c9763          	bnez	s9,80201e5e <scheduler_priority_extend+0x108>
    80201df4:	8552                	mv	a0,s4
    80201df6:	ca2fe0ef          	jal	80200298 <acquire>
    80201dfa:	014a2783          	lw	a5,20(s4)
    80201dfe:	02978763          	beq	a5,s1,80201e2c <scheduler_priority_extend+0xd6>
    80201e02:	8552                	mv	a0,s4
    80201e04:	ca6fe0ef          	jal	802002aa <release>
    80201e08:	b769                	j	80201d92 <scheduler_priority_extend+0x3c>
    80201e0a:	fb3793e3          	bne	a5,s3,80201db0 <scheduler_priority_extend+0x5a>
    80201e0e:	14842783          	lw	a5,328(s0)
    80201e12:	0157ca63          	blt	a5,s5,80201e26 <scheduler_priority_extend+0xd0>
    80201e16:	f9579de3          	bne	a5,s5,80201db0 <scheduler_priority_extend+0x5a>
    80201e1a:	481c                	lw	a5,16(s0)
    80201e1c:	f967dae3          	bge	a5,s6,80201db0 <scheduler_priority_extend+0x5a>
    80201e20:	8b3e                	mv	s6,a5
    80201e22:	8a22                	mv	s4,s0
    80201e24:	b771                	j	80201db0 <scheduler_priority_extend+0x5a>
    80201e26:	8abe                	mv	s5,a5
    80201e28:	8a22                	mv	s4,s0
    80201e2a:	b759                	j	80201db0 <scheduler_priority_extend+0x5a>
    80201e2c:	148a2783          	lw	a5,328(s4)
    80201e30:	8552                	mv	a0,s4
    80201e32:	01ba2a23          	sw	s11,20(s4)
    80201e36:	2785                	addiw	a5,a5,1
    80201e38:	14fa2423          	sw	a5,328(s4)
    80201e3c:	014d3023          	sd	s4,0(s10)
    80201e40:	c6afe0ef          	jal	802002aa <release>
    80201e44:	020a0593          	addi	a1,s4,32
    80201e48:	00007517          	auipc	a0,0x7
    80201e4c:	f3850513          	addi	a0,a0,-200 # 80208d80 <sched_ctx>
    80201e50:	072000ef          	jal	80201ec2 <swtch>
    80201e54:	00007797          	auipc	a5,0x7
    80201e58:	a407ba23          	sd	zero,-1452(a5) # 802088a8 <current_proc>
    80201e5c:	bf1d                	j	80201d92 <scheduler_priority_extend+0x3c>
    80201e5e:	00012417          	auipc	s0,0x12
    80201e62:	0e240413          	addi	s0,s0,226 # 80213f40 <proc_table>
    80201e66:	a039                	j	80201e74 <scheduler_priority_extend+0x11e>
    80201e68:	15040413          	addi	s0,s0,336
    80201e6c:	c3efe0ef          	jal	802002aa <release>
    80201e70:	f92402e3          	beq	s0,s2,80201df4 <scheduler_priority_extend+0x9e>
    80201e74:	8522                	mv	a0,s0
    80201e76:	c22fe0ef          	jal	80200298 <acquire>
    80201e7a:	485c                	lw	a5,20(s0)
    80201e7c:	8522                	mv	a0,s0
    80201e7e:	fe9795e3          	bne	a5,s1,80201e68 <scheduler_priority_extend+0x112>
    80201e82:	fe8a03e3          	beq	s4,s0,80201e68 <scheduler_priority_extend+0x112>
    80201e86:	14c42783          	lw	a5,332(s0)
    80201e8a:	2785                	addiw	a5,a5,1
    80201e8c:	14f42623          	sw	a5,332(s0)
    80201e90:	fcfbdce3          	bge	s7,a5,80201e68 <scheduler_priority_extend+0x112>
    80201e94:	09442783          	lw	a5,148(s0)
    80201e98:	14042623          	sw	zero,332(s0)
    80201e9c:	2785                	addiw	a5,a5,1
    80201e9e:	08f42a23          	sw	a5,148(s0)
    80201ea2:	b7d9                	j	80201e68 <scheduler_priority_extend+0x112>
    80201ea4:	70a6                	ld	ra,104(sp)
    80201ea6:	7406                	ld	s0,96(sp)
    80201ea8:	64e6                	ld	s1,88(sp)
    80201eaa:	6946                	ld	s2,80(sp)
    80201eac:	69a6                	ld	s3,72(sp)
    80201eae:	6a06                	ld	s4,64(sp)
    80201eb0:	7ae2                	ld	s5,56(sp)
    80201eb2:	7b42                	ld	s6,48(sp)
    80201eb4:	7ba2                	ld	s7,40(sp)
    80201eb6:	7c02                	ld	s8,32(sp)
    80201eb8:	6ce2                	ld	s9,24(sp)
    80201eba:	6d42                	ld	s10,16(sp)
    80201ebc:	6da2                	ld	s11,8(sp)
    80201ebe:	6165                	addi	sp,sp,112
    80201ec0:	8082                	ret

0000000080201ec2 <swtch>:
    80201ec2:	00153023          	sd	ra,0(a0)
    80201ec6:	00253423          	sd	sp,8(a0)
    80201eca:	e900                	sd	s0,16(a0)
    80201ecc:	ed04                	sd	s1,24(a0)
    80201ece:	03253023          	sd	s2,32(a0)
    80201ed2:	03353423          	sd	s3,40(a0)
    80201ed6:	03453823          	sd	s4,48(a0)
    80201eda:	03553c23          	sd	s5,56(a0)
    80201ede:	05653023          	sd	s6,64(a0)
    80201ee2:	05753423          	sd	s7,72(a0)
    80201ee6:	05853823          	sd	s8,80(a0)
    80201eea:	05953c23          	sd	s9,88(a0)
    80201eee:	07a53023          	sd	s10,96(a0)
    80201ef2:	07b53423          	sd	s11,104(a0)
    80201ef6:	0005b083          	ld	ra,0(a1)
    80201efa:	0085b103          	ld	sp,8(a1)
    80201efe:	6980                	ld	s0,16(a1)
    80201f00:	6d84                	ld	s1,24(a1)
    80201f02:	0205b903          	ld	s2,32(a1)
    80201f06:	0285b983          	ld	s3,40(a1)
    80201f0a:	0305ba03          	ld	s4,48(a1)
    80201f0e:	0385ba83          	ld	s5,56(a1)
    80201f12:	0405bb03          	ld	s6,64(a1)
    80201f16:	0485bb83          	ld	s7,72(a1)
    80201f1a:	0505bc03          	ld	s8,80(a1)
    80201f1e:	0585bc83          	ld	s9,88(a1)
    80201f22:	0605bd03          	ld	s10,96(a1)
    80201f26:	0685bd83          	ld	s11,104(a1)
    80201f2a:	8082                	ret

0000000080201f2c <shared_buffer_init>:
    80201f2c:	1141                	addi	sp,sp,-16
    80201f2e:	00005597          	auipc	a1,0x5
    80201f32:	4b258593          	addi	a1,a1,1202 # 802073e0 <etext+0x3e0>
    80201f36:	00007517          	auipc	a0,0x7
    80201f3a:	eda50513          	addi	a0,a0,-294 # 80208e10 <sbuf+0x20>
    80201f3e:	e022                	sd	s0,0(sp)
    80201f40:	e406                	sd	ra,8(sp)
    80201f42:	00007417          	auipc	s0,0x7
    80201f46:	eae40413          	addi	s0,s0,-338 # 80208df0 <sbuf>
    80201f4a:	b46fe0ef          	jal	80200290 <initlock>
    80201f4e:	60a2                	ld	ra,8(sp)
    80201f50:	00042c23          	sw	zero,24(s0)
    80201f54:	00043823          	sd	zero,16(s0)
    80201f58:	6402                	ld	s0,0(sp)
    80201f5a:	0141                	addi	sp,sp,16
    80201f5c:	8082                	ret

0000000080201f5e <producer_task>:
    80201f5e:	7139                	addi	sp,sp,-64
    80201f60:	f822                	sd	s0,48(sp)
    80201f62:	f426                	sd	s1,40(sp)
    80201f64:	f04a                	sd	s2,32(sp)
    80201f66:	ec4e                	sd	s3,24(sp)
    80201f68:	e852                	sd	s4,16(sp)
    80201f6a:	e456                	sd	s5,8(sp)
    80201f6c:	fc06                	sd	ra,56(sp)
    80201f6e:	4981                	li	s3,0
    80201f70:	00007417          	auipc	s0,0x7
    80201f74:	e8040413          	addi	s0,s0,-384 # 80208df0 <sbuf>
    80201f78:	00007497          	auipc	s1,0x7
    80201f7c:	e9848493          	addi	s1,s1,-360 # 80208e10 <sbuf+0x20>
    80201f80:	4911                	li	s2,4
    80201f82:	00005a97          	auipc	s5,0x5
    80201f86:	466a8a93          	addi	s5,s5,1126 # 802073e8 <etext+0x3e8>
    80201f8a:	4a29                	li	s4,10
    80201f8c:	8526                	mv	a0,s1
    80201f8e:	b0afe0ef          	jal	80200298 <acquire>
    80201f92:	4c1c                	lw	a5,24(s0)
    80201f94:	01279963          	bne	a5,s2,80201fa6 <producer_task+0x48>
    80201f98:	85a6                	mv	a1,s1
    80201f9a:	8522                	mv	a0,s0
    80201f9c:	addff0ef          	jal	80201a78 <sleep>
    80201fa0:	4c1c                	lw	a5,24(s0)
    80201fa2:	ff278be3          	beq	a5,s2,80201f98 <producer_task+0x3a>
    80201fa6:	4854                	lw	a3,20(s0)
    80201fa8:	0017861b          	addiw	a2,a5,1
    80201fac:	8556                	mv	a0,s5
    80201fae:	0016871b          	addiw	a4,a3,1 # 1001 <_entry-0x801fefff>
    80201fb2:	41f7559b          	sraiw	a1,a4,0x1f
    80201fb6:	01e5d59b          	srliw	a1,a1,0x1e
    80201fba:	068a                	slli	a3,a3,0x2
    80201fbc:	96a2                	add	a3,a3,s0
    80201fbe:	9f2d                	addw	a4,a4,a1
    80201fc0:	0136a023          	sw	s3,0(a3)
    80201fc4:	8b0d                	andi	a4,a4,3
    80201fc6:	2985                	addiw	s3,s3,1
    80201fc8:	9f0d                	subw	a4,a4,a1
    80201fca:	85ce                	mv	a1,s3
    80201fcc:	c858                	sw	a4,20(s0)
    80201fce:	cc10                	sw	a2,24(s0)
    80201fd0:	98afe0ef          	jal	8020015a <printf>
    80201fd4:	8522                	mv	a0,s0
    80201fd6:	c2bff0ef          	jal	80201c00 <wakeup>
    80201fda:	8526                	mv	a0,s1
    80201fdc:	acefe0ef          	jal	802002aa <release>
    80201fe0:	fb4996e3          	bne	s3,s4,80201f8c <producer_task+0x2e>
    80201fe4:	00005517          	auipc	a0,0x5
    80201fe8:	42450513          	addi	a0,a0,1060 # 80207408 <etext+0x408>
    80201fec:	96efe0ef          	jal	8020015a <printf>
    80201ff0:	7442                	ld	s0,48(sp)
    80201ff2:	70e2                	ld	ra,56(sp)
    80201ff4:	74a2                	ld	s1,40(sp)
    80201ff6:	7902                	ld	s2,32(sp)
    80201ff8:	69e2                	ld	s3,24(sp)
    80201ffa:	6a42                	ld	s4,16(sp)
    80201ffc:	6aa2                	ld	s5,8(sp)
    80201ffe:	00007517          	auipc	a0,0x7
    80202002:	8aa53503          	ld	a0,-1878(a0) # 802088a8 <current_proc>
    80202006:	4581                	li	a1,0
    80202008:	6121                	addi	sp,sp,64
    8020200a:	efeff06f          	j	80201708 <exit_process>

000000008020200e <consumer_task>:
    8020200e:	7179                	addi	sp,sp,-48
    80202010:	f022                	sd	s0,32(sp)
    80202012:	ec26                	sd	s1,24(sp)
    80202014:	e84a                	sd	s2,16(sp)
    80202016:	e44e                	sd	s3,8(sp)
    80202018:	f406                	sd	ra,40(sp)
    8020201a:	4929                	li	s2,10
    8020201c:	00007417          	auipc	s0,0x7
    80202020:	dd440413          	addi	s0,s0,-556 # 80208df0 <sbuf>
    80202024:	00007497          	auipc	s1,0x7
    80202028:	dec48493          	addi	s1,s1,-532 # 80208e10 <sbuf+0x20>
    8020202c:	00005997          	auipc	s3,0x5
    80202030:	3f498993          	addi	s3,s3,1012 # 80207420 <etext+0x420>
    80202034:	8526                	mv	a0,s1
    80202036:	a62fe0ef          	jal	80200298 <acquire>
    8020203a:	4c1c                	lw	a5,24(s0)
    8020203c:	e799                	bnez	a5,8020204a <consumer_task+0x3c>
    8020203e:	85a6                	mv	a1,s1
    80202040:	8522                	mv	a0,s0
    80202042:	a37ff0ef          	jal	80201a78 <sleep>
    80202046:	4c1c                	lw	a5,24(s0)
    80202048:	dbfd                	beqz	a5,8020203e <consumer_task+0x30>
    8020204a:	4814                	lw	a3,16(s0)
    8020204c:	fff7861b          	addiw	a2,a5,-1
    80202050:	cc10                	sw	a2,24(s0)
    80202052:	0016871b          	addiw	a4,a3,1
    80202056:	068a                	slli	a3,a3,0x2
    80202058:	96a2                	add	a3,a3,s0
    8020205a:	41f7551b          	sraiw	a0,a4,0x1f
    8020205e:	428c                	lw	a1,0(a3)
    80202060:	01e5551b          	srliw	a0,a0,0x1e
    80202064:	9f29                	addw	a4,a4,a0
    80202066:	8b0d                	andi	a4,a4,3
    80202068:	9f09                	subw	a4,a4,a0
    8020206a:	2585                	addiw	a1,a1,1
    8020206c:	854e                	mv	a0,s3
    8020206e:	c818                	sw	a4,16(s0)
    80202070:	8eafe0ef          	jal	8020015a <printf>
    80202074:	8522                	mv	a0,s0
    80202076:	b8bff0ef          	jal	80201c00 <wakeup>
    8020207a:	8526                	mv	a0,s1
    8020207c:	397d                	addiw	s2,s2,-1
    8020207e:	a2cfe0ef          	jal	802002aa <release>
    80202082:	fa0919e3          	bnez	s2,80202034 <consumer_task+0x26>
    80202086:	00005517          	auipc	a0,0x5
    8020208a:	3ba50513          	addi	a0,a0,954 # 80207440 <etext+0x440>
    8020208e:	8ccfe0ef          	jal	8020015a <printf>
    80202092:	7402                	ld	s0,32(sp)
    80202094:	70a2                	ld	ra,40(sp)
    80202096:	64e2                	ld	s1,24(sp)
    80202098:	6942                	ld	s2,16(sp)
    8020209a:	69a2                	ld	s3,8(sp)
    8020209c:	00007517          	auipc	a0,0x7
    802020a0:	80c53503          	ld	a0,-2036(a0) # 802088a8 <current_proc>
    802020a4:	4581                	li	a1,0
    802020a6:	6145                	addi	sp,sp,48
    802020a8:	e60ff06f          	j	80201708 <exit_process>

00000000802020ac <binit>:
    802020ac:	7179                	addi	sp,sp,-48
    802020ae:	00005597          	auipc	a1,0x5
    802020b2:	3aa58593          	addi	a1,a1,938 # 80207458 <etext+0x458>
    802020b6:	00007517          	auipc	a0,0x7
    802020ba:	d6a50513          	addi	a0,a0,-662 # 80208e20 <bcache>
    802020be:	f022                	sd	s0,32(sp)
    802020c0:	ec26                	sd	s1,24(sp)
    802020c2:	e84a                	sd	s2,16(sp)
    802020c4:	e44e                	sd	s3,8(sp)
    802020c6:	0000f917          	auipc	s2,0xf
    802020ca:	eca90913          	addi	s2,s2,-310 # 80210f90 <bcache+0x8170>
    802020ce:	e052                	sd	s4,0(sp)
    802020d0:	0000f497          	auipc	s1,0xf
    802020d4:	d5048493          	addi	s1,s1,-688 # 80210e20 <bcache+0x8000>
    802020d8:	f406                	sd	ra,40(sp)
    802020da:	9b6fe0ef          	jal	80200290 <initlock>
    802020de:	8a4a                	mv	s4,s2
    802020e0:	1b24b823          	sd	s2,432(s1)
    802020e4:	1b24bc23          	sd	s2,440(s1)
    802020e8:	874a                	mv	a4,s2
    802020ea:	00007417          	auipc	s0,0x7
    802020ee:	d4640413          	addi	s0,s0,-698 # 80208e30 <bcache+0x10>
    802020f2:	00005997          	auipc	s3,0x5
    802020f6:	36e98993          	addi	s3,s3,878 # 80207460 <etext+0x460>
    802020fa:	a011                	j	802020fe <binit+0x52>
    802020fc:	843e                	mv	s0,a5
    802020fe:	e438                	sd	a4,72(s0)
    80202100:	05243023          	sd	s2,64(s0)
    80202104:	85ce                	mv	a1,s3
    80202106:	01040513          	addi	a0,s0,16
    8020210a:	1ce010ef          	jal	802032d8 <initsleeplock>
    8020210e:	1b84b683          	ld	a3,440(s1)
    80202112:	45040793          	addi	a5,s0,1104
    80202116:	8722                	mv	a4,s0
    80202118:	e2a0                	sd	s0,64(a3)
    8020211a:	1a84bc23          	sd	s0,440(s1)
    8020211e:	fd479fe3          	bne	a5,s4,802020fc <binit+0x50>
    80202122:	70a2                	ld	ra,40(sp)
    80202124:	7402                	ld	s0,32(sp)
    80202126:	64e2                	ld	s1,24(sp)
    80202128:	6942                	ld	s2,16(sp)
    8020212a:	69a2                	ld	s3,8(sp)
    8020212c:	6a02                	ld	s4,0(sp)
    8020212e:	6145                	addi	sp,sp,48
    80202130:	8082                	ret

0000000080202132 <bread>:
    80202132:	7179                	addi	sp,sp,-48
    80202134:	02051793          	slli	a5,a0,0x20
    80202138:	9381                	srli	a5,a5,0x20
    8020213a:	ec26                	sd	s1,24(sp)
    8020213c:	02059713          	slli	a4,a1,0x20
    80202140:	84aa                	mv	s1,a0
    80202142:	00007517          	auipc	a0,0x7
    80202146:	cde50513          	addi	a0,a0,-802 # 80208e20 <bcache>
    8020214a:	f022                	sd	s0,32(sp)
    8020214c:	e84a                	sd	s2,16(sp)
    8020214e:	e44e                	sd	s3,8(sp)
    80202150:	f406                	sd	ra,40(sp)
    80202152:	00e7e9b3          	or	s3,a5,a4
    80202156:	892e                	mv	s2,a1
    80202158:	940fe0ef          	jal	80200298 <acquire>
    8020215c:	0000f697          	auipc	a3,0xf
    80202160:	cc468693          	addi	a3,a3,-828 # 80210e20 <bcache+0x8000>
    80202164:	1b86b403          	ld	s0,440(a3)
    80202168:	0000f797          	auipc	a5,0xf
    8020216c:	e2878793          	addi	a5,a5,-472 # 80210f90 <bcache+0x8170>
    80202170:	00f41663          	bne	s0,a5,8020217c <bread+0x4a>
    80202174:	a0b9                	j	802021c2 <bread+0x90>
    80202176:	6420                	ld	s0,72(s0)
    80202178:	04f40563          	beq	s0,a5,802021c2 <bread+0x90>
    8020217c:	4418                	lw	a4,8(s0)
    8020217e:	fe971ce3          	bne	a4,s1,80202176 <bread+0x44>
    80202182:	4458                	lw	a4,12(s0)
    80202184:	ff2719e3          	bne	a4,s2,80202176 <bread+0x44>
    80202188:	5c1c                	lw	a5,56(s0)
    8020218a:	00007517          	auipc	a0,0x7
    8020218e:	c9650513          	addi	a0,a0,-874 # 80208e20 <bcache>
    80202192:	2785                	addiw	a5,a5,1
    80202194:	dc1c                	sw	a5,56(s0)
    80202196:	914fe0ef          	jal	802002aa <release>
    8020219a:	01040513          	addi	a0,s0,16
    8020219e:	168010ef          	jal	80203306 <acquiresleep>
    802021a2:	401c                	lw	a5,0(s0)
    802021a4:	ebb9                	bnez	a5,802021fa <bread+0xc8>
    802021a6:	8522                	mv	a0,s0
    802021a8:	4581                	li	a1,0
    802021aa:	0a1010ef          	jal	80203a4a <virtio_disk_rw>
    802021ae:	4785                	li	a5,1
    802021b0:	70a2                	ld	ra,40(sp)
    802021b2:	c01c                	sw	a5,0(s0)
    802021b4:	8522                	mv	a0,s0
    802021b6:	7402                	ld	s0,32(sp)
    802021b8:	64e2                	ld	s1,24(sp)
    802021ba:	6942                	ld	s2,16(sp)
    802021bc:	69a2                	ld	s3,8(sp)
    802021be:	6145                	addi	sp,sp,48
    802021c0:	8082                	ret
    802021c2:	1b06b403          	ld	s0,432(a3)
    802021c6:	00f41663          	bne	s0,a5,802021d2 <bread+0xa0>
    802021ca:	a081                	j	8020220a <bread+0xd8>
    802021cc:	6020                	ld	s0,64(s0)
    802021ce:	02f40e63          	beq	s0,a5,8020220a <bread+0xd8>
    802021d2:	5c18                	lw	a4,56(s0)
    802021d4:	ff65                	bnez	a4,802021cc <bread+0x9a>
    802021d6:	4785                	li	a5,1
    802021d8:	dc1c                	sw	a5,56(s0)
    802021da:	00007517          	auipc	a0,0x7
    802021de:	c4650513          	addi	a0,a0,-954 # 80208e20 <bcache>
    802021e2:	01343423          	sd	s3,8(s0)
    802021e6:	00042023          	sw	zero,0(s0)
    802021ea:	8c0fe0ef          	jal	802002aa <release>
    802021ee:	01040513          	addi	a0,s0,16
    802021f2:	114010ef          	jal	80203306 <acquiresleep>
    802021f6:	401c                	lw	a5,0(s0)
    802021f8:	d7dd                	beqz	a5,802021a6 <bread+0x74>
    802021fa:	70a2                	ld	ra,40(sp)
    802021fc:	8522                	mv	a0,s0
    802021fe:	7402                	ld	s0,32(sp)
    80202200:	64e2                	ld	s1,24(sp)
    80202202:	6942                	ld	s2,16(sp)
    80202204:	69a2                	ld	s3,8(sp)
    80202206:	6145                	addi	sp,sp,48
    80202208:	8082                	ret
    8020220a:	00005517          	auipc	a0,0x5
    8020220e:	25e50513          	addi	a0,a0,606 # 80207468 <etext+0x468>
    80202212:	83efe0ef          	jal	80200250 <panic>

0000000080202216 <bwrite>:
    80202216:	1141                	addi	sp,sp,-16
    80202218:	e022                	sd	s0,0(sp)
    8020221a:	842a                	mv	s0,a0
    8020221c:	0541                	addi	a0,a0,16
    8020221e:	e406                	sd	ra,8(sp)
    80202220:	158010ef          	jal	80203378 <holdingsleep>
    80202224:	c901                	beqz	a0,80202234 <bwrite+0x1e>
    80202226:	8522                	mv	a0,s0
    80202228:	6402                	ld	s0,0(sp)
    8020222a:	60a2                	ld	ra,8(sp)
    8020222c:	4585                	li	a1,1
    8020222e:	0141                	addi	sp,sp,16
    80202230:	01b0106f          	j	80203a4a <virtio_disk_rw>
    80202234:	00005517          	auipc	a0,0x5
    80202238:	24c50513          	addi	a0,a0,588 # 80207480 <etext+0x480>
    8020223c:	814fe0ef          	jal	80200250 <panic>

0000000080202240 <brelse>:
    80202240:	1101                	addi	sp,sp,-32
    80202242:	e426                	sd	s1,8(sp)
    80202244:	01050493          	addi	s1,a0,16
    80202248:	e822                	sd	s0,16(sp)
    8020224a:	842a                	mv	s0,a0
    8020224c:	8526                	mv	a0,s1
    8020224e:	ec06                	sd	ra,24(sp)
    80202250:	128010ef          	jal	80203378 <holdingsleep>
    80202254:	cd21                	beqz	a0,802022ac <brelse+0x6c>
    80202256:	8526                	mv	a0,s1
    80202258:	0f0010ef          	jal	80203348 <releasesleep>
    8020225c:	00007517          	auipc	a0,0x7
    80202260:	bc450513          	addi	a0,a0,-1084 # 80208e20 <bcache>
    80202264:	834fe0ef          	jal	80200298 <acquire>
    80202268:	5c1c                	lw	a5,56(s0)
    8020226a:	fff7871b          	addiw	a4,a5,-1
    8020226e:	dc18                	sw	a4,56(s0)
    80202270:	e705                	bnez	a4,80202298 <brelse+0x58>
    80202272:	6434                	ld	a3,72(s0)
    80202274:	6038                	ld	a4,64(s0)
    80202276:	0000f797          	auipc	a5,0xf
    8020227a:	baa78793          	addi	a5,a5,-1110 # 80210e20 <bcache+0x8000>
    8020227e:	e2b8                	sd	a4,64(a3)
    80202280:	e734                	sd	a3,72(a4)
    80202282:	1b87b703          	ld	a4,440(a5)
    80202286:	0000f697          	auipc	a3,0xf
    8020228a:	d0a68693          	addi	a3,a3,-758 # 80210f90 <bcache+0x8170>
    8020228e:	e034                	sd	a3,64(s0)
    80202290:	e438                	sd	a4,72(s0)
    80202292:	e320                	sd	s0,64(a4)
    80202294:	1a87bc23          	sd	s0,440(a5)
    80202298:	6442                	ld	s0,16(sp)
    8020229a:	60e2                	ld	ra,24(sp)
    8020229c:	64a2                	ld	s1,8(sp)
    8020229e:	00007517          	auipc	a0,0x7
    802022a2:	b8250513          	addi	a0,a0,-1150 # 80208e20 <bcache>
    802022a6:	6105                	addi	sp,sp,32
    802022a8:	802fe06f          	j	802002aa <release>
    802022ac:	00005517          	auipc	a0,0x5
    802022b0:	1dc50513          	addi	a0,a0,476 # 80207488 <etext+0x488>
    802022b4:	f9dfd0ef          	jal	80200250 <panic>

00000000802022b8 <bpin>:
    802022b8:	1141                	addi	sp,sp,-16
    802022ba:	e022                	sd	s0,0(sp)
    802022bc:	842a                	mv	s0,a0
    802022be:	00007517          	auipc	a0,0x7
    802022c2:	b6250513          	addi	a0,a0,-1182 # 80208e20 <bcache>
    802022c6:	e406                	sd	ra,8(sp)
    802022c8:	fd1fd0ef          	jal	80200298 <acquire>
    802022cc:	5c1c                	lw	a5,56(s0)
    802022ce:	60a2                	ld	ra,8(sp)
    802022d0:	00007517          	auipc	a0,0x7
    802022d4:	b5050513          	addi	a0,a0,-1200 # 80208e20 <bcache>
    802022d8:	2785                	addiw	a5,a5,1
    802022da:	dc1c                	sw	a5,56(s0)
    802022dc:	6402                	ld	s0,0(sp)
    802022de:	0141                	addi	sp,sp,16
    802022e0:	fcbfd06f          	j	802002aa <release>

00000000802022e4 <bunpin>:
    802022e4:	1141                	addi	sp,sp,-16
    802022e6:	e022                	sd	s0,0(sp)
    802022e8:	842a                	mv	s0,a0
    802022ea:	00007517          	auipc	a0,0x7
    802022ee:	b3650513          	addi	a0,a0,-1226 # 80208e20 <bcache>
    802022f2:	e406                	sd	ra,8(sp)
    802022f4:	fa5fd0ef          	jal	80200298 <acquire>
    802022f8:	5c1c                	lw	a5,56(s0)
    802022fa:	60a2                	ld	ra,8(sp)
    802022fc:	00007517          	auipc	a0,0x7
    80202300:	b2450513          	addi	a0,a0,-1244 # 80208e20 <bcache>
    80202304:	37fd                	addiw	a5,a5,-1
    80202306:	dc1c                	sw	a5,56(s0)
    80202308:	6402                	ld	s0,0(sp)
    8020230a:	0141                	addi	sp,sp,16
    8020230c:	f9ffd06f          	j	802002aa <release>

0000000080202310 <bcache_reset>:
    80202310:	1141                	addi	sp,sp,-16
    80202312:	00007517          	auipc	a0,0x7
    80202316:	b0e50513          	addi	a0,a0,-1266 # 80208e20 <bcache>
    8020231a:	e406                	sd	ra,8(sp)
    8020231c:	f7dfd0ef          	jal	80200298 <acquire>
    80202320:	00007797          	auipc	a5,0x7
    80202324:	b1078793          	addi	a5,a5,-1264 # 80208e30 <bcache+0x10>
    80202328:	0000f717          	auipc	a4,0xf
    8020232c:	c6870713          	addi	a4,a4,-920 # 80210f90 <bcache+0x8170>
    80202330:	0007a023          	sw	zero,0(a5)
    80202334:	0207ac23          	sw	zero,56(a5)
    80202338:	45078793          	addi	a5,a5,1104
    8020233c:	fee79ae3          	bne	a5,a4,80202330 <bcache_reset+0x20>
    80202340:	60a2                	ld	ra,8(sp)
    80202342:	00007517          	auipc	a0,0x7
    80202346:	ade50513          	addi	a0,a0,-1314 # 80208e20 <bcache>
    8020234a:	0141                	addi	sp,sp,16
    8020234c:	f5ffd06f          	j	802002aa <release>

0000000080202350 <fileinit>:
    80202350:	00005597          	auipc	a1,0x5
    80202354:	14058593          	addi	a1,a1,320 # 80207490 <etext+0x490>
    80202358:	0000f517          	auipc	a0,0xf
    8020235c:	08850513          	addi	a0,a0,136 # 802113e0 <ftable>
    80202360:	f31fd06f          	j	80200290 <initlock>

0000000080202364 <filealloc>:
    80202364:	1141                	addi	sp,sp,-16
    80202366:	0000f517          	auipc	a0,0xf
    8020236a:	07a50513          	addi	a0,a0,122 # 802113e0 <ftable>
    8020236e:	e022                	sd	s0,0(sp)
    80202370:	e406                	sd	ra,8(sp)
    80202372:	f27fd0ef          	jal	80200298 <acquire>
    80202376:	0000f417          	auipc	s0,0xf
    8020237a:	07a40413          	addi	s0,s0,122 # 802113f0 <ftable+0x10>
    8020237e:	00010717          	auipc	a4,0x10
    80202382:	01270713          	addi	a4,a4,18 # 80212390 <devsw>
    80202386:	a029                	j	80202390 <filealloc+0x2c>
    80202388:	02840413          	addi	s0,s0,40
    8020238c:	02e40163          	beq	s0,a4,802023ae <filealloc+0x4a>
    80202390:	405c                	lw	a5,4(s0)
    80202392:	fbfd                	bnez	a5,80202388 <filealloc+0x24>
    80202394:	4785                	li	a5,1
    80202396:	c05c                	sw	a5,4(s0)
    80202398:	0000f517          	auipc	a0,0xf
    8020239c:	04850513          	addi	a0,a0,72 # 802113e0 <ftable>
    802023a0:	f0bfd0ef          	jal	802002aa <release>
    802023a4:	60a2                	ld	ra,8(sp)
    802023a6:	8522                	mv	a0,s0
    802023a8:	6402                	ld	s0,0(sp)
    802023aa:	0141                	addi	sp,sp,16
    802023ac:	8082                	ret
    802023ae:	0000f517          	auipc	a0,0xf
    802023b2:	03250513          	addi	a0,a0,50 # 802113e0 <ftable>
    802023b6:	ef5fd0ef          	jal	802002aa <release>
    802023ba:	4401                	li	s0,0
    802023bc:	60a2                	ld	ra,8(sp)
    802023be:	8522                	mv	a0,s0
    802023c0:	6402                	ld	s0,0(sp)
    802023c2:	0141                	addi	sp,sp,16
    802023c4:	8082                	ret

00000000802023c6 <filedup>:
    802023c6:	1141                	addi	sp,sp,-16
    802023c8:	e022                	sd	s0,0(sp)
    802023ca:	842a                	mv	s0,a0
    802023cc:	0000f517          	auipc	a0,0xf
    802023d0:	01450513          	addi	a0,a0,20 # 802113e0 <ftable>
    802023d4:	e406                	sd	ra,8(sp)
    802023d6:	ec3fd0ef          	jal	80200298 <acquire>
    802023da:	405c                	lw	a5,4(s0)
    802023dc:	00f05f63          	blez	a5,802023fa <filedup+0x34>
    802023e0:	2785                	addiw	a5,a5,1
    802023e2:	c05c                	sw	a5,4(s0)
    802023e4:	0000f517          	auipc	a0,0xf
    802023e8:	ffc50513          	addi	a0,a0,-4 # 802113e0 <ftable>
    802023ec:	ebffd0ef          	jal	802002aa <release>
    802023f0:	60a2                	ld	ra,8(sp)
    802023f2:	8522                	mv	a0,s0
    802023f4:	6402                	ld	s0,0(sp)
    802023f6:	0141                	addi	sp,sp,16
    802023f8:	8082                	ret
    802023fa:	00005517          	auipc	a0,0x5
    802023fe:	09e50513          	addi	a0,a0,158 # 80207498 <etext+0x498>
    80202402:	e4ffd0ef          	jal	80200250 <panic>

0000000080202406 <fileclose>:
    80202406:	1101                	addi	sp,sp,-32
    80202408:	e822                	sd	s0,16(sp)
    8020240a:	842a                	mv	s0,a0
    8020240c:	0000f517          	auipc	a0,0xf
    80202410:	fd450513          	addi	a0,a0,-44 # 802113e0 <ftable>
    80202414:	ec06                	sd	ra,24(sp)
    80202416:	e83fd0ef          	jal	80200298 <acquire>
    8020241a:	405c                	lw	a5,4(s0)
    8020241c:	04f05d63          	blez	a5,80202476 <fileclose+0x70>
    80202420:	fff7871b          	addiw	a4,a5,-1
    80202424:	c058                	sw	a4,4(s0)
    80202426:	e705                	bnez	a4,8020244e <fileclose+0x48>
    80202428:	e426                	sd	s1,8(sp)
    8020242a:	0000f517          	auipc	a0,0xf
    8020242e:	fb650513          	addi	a0,a0,-74 # 802113e0 <ftable>
    80202432:	4004                	lw	s1,0(s0)
    80202434:	00042023          	sw	zero,0(s0)
    80202438:	6c00                	ld	s0,24(s0)
    8020243a:	e71fd0ef          	jal	802002aa <release>
    8020243e:	4789                	li	a5,2
    80202440:	02f48063          	beq	s1,a5,80202460 <fileclose+0x5a>
    80202444:	60e2                	ld	ra,24(sp)
    80202446:	6442                	ld	s0,16(sp)
    80202448:	64a2                	ld	s1,8(sp)
    8020244a:	6105                	addi	sp,sp,32
    8020244c:	8082                	ret
    8020244e:	6442                	ld	s0,16(sp)
    80202450:	60e2                	ld	ra,24(sp)
    80202452:	0000f517          	auipc	a0,0xf
    80202456:	f8e50513          	addi	a0,a0,-114 # 802113e0 <ftable>
    8020245a:	6105                	addi	sp,sp,32
    8020245c:	e4ffd06f          	j	802002aa <release>
    80202460:	12d010ef          	jal	80203d8c <begin_op>
    80202464:	8522                	mv	a0,s0
    80202466:	78e000ef          	jal	80202bf4 <iput>
    8020246a:	6442                	ld	s0,16(sp)
    8020246c:	64a2                	ld	s1,8(sp)
    8020246e:	60e2                	ld	ra,24(sp)
    80202470:	6105                	addi	sp,sp,32
    80202472:	1790106f          	j	80203dea <end_op>
    80202476:	00005517          	auipc	a0,0x5
    8020247a:	02a50513          	addi	a0,a0,42 # 802074a0 <etext+0x4a0>
    8020247e:	e426                	sd	s1,8(sp)
    80202480:	dd1fd0ef          	jal	80200250 <panic>

0000000080202484 <fileread>:
    80202484:	1101                	addi	sp,sp,-32
    80202486:	ec06                	sd	ra,24(sp)
    80202488:	e426                	sd	s1,8(sp)
    8020248a:	00854783          	lbu	a5,8(a0)
    8020248e:	c7a1                	beqz	a5,802024d6 <fileread+0x52>
    80202490:	4118                	lw	a4,0(a0)
    80202492:	e822                	sd	s0,16(sp)
    80202494:	e04a                	sd	s2,0(sp)
    80202496:	4789                	li	a5,2
    80202498:	842a                	mv	s0,a0
    8020249a:	04f71063          	bne	a4,a5,802024da <fileread+0x56>
    8020249e:	6d08                	ld	a0,24(a0)
    802024a0:	84ae                	mv	s1,a1
    802024a2:	8932                	mv	s2,a2
    802024a4:	5d8000ef          	jal	80202a7c <ilock>
    802024a8:	5014                	lw	a3,32(s0)
    802024aa:	6c08                	ld	a0,24(s0)
    802024ac:	8626                	mv	a2,s1
    802024ae:	874a                	mv	a4,s2
    802024b0:	4581                	li	a1,0
    802024b2:	13f000ef          	jal	80202df0 <readi>
    802024b6:	84aa                	mv	s1,a0
    802024b8:	00a05563          	blez	a0,802024c2 <fileread+0x3e>
    802024bc:	501c                	lw	a5,32(s0)
    802024be:	9fa9                	addw	a5,a5,a0
    802024c0:	d01c                	sw	a5,32(s0)
    802024c2:	6c08                	ld	a0,24(s0)
    802024c4:	666000ef          	jal	80202b2a <iunlock>
    802024c8:	6442                	ld	s0,16(sp)
    802024ca:	6902                	ld	s2,0(sp)
    802024cc:	60e2                	ld	ra,24(sp)
    802024ce:	8526                	mv	a0,s1
    802024d0:	64a2                	ld	s1,8(sp)
    802024d2:	6105                	addi	sp,sp,32
    802024d4:	8082                	ret
    802024d6:	54fd                	li	s1,-1
    802024d8:	bfd5                	j	802024cc <fileread+0x48>
    802024da:	00005517          	auipc	a0,0x5
    802024de:	fd650513          	addi	a0,a0,-42 # 802074b0 <etext+0x4b0>
    802024e2:	d6ffd0ef          	jal	80200250 <panic>

00000000802024e6 <filewrite>:
    802024e6:	7139                	addi	sp,sp,-64
    802024e8:	fc06                	sd	ra,56(sp)
    802024ea:	f426                	sd	s1,40(sp)
    802024ec:	00954783          	lbu	a5,9(a0)
    802024f0:	c3dd                	beqz	a5,80202596 <filewrite+0xb0>
    802024f2:	4118                	lw	a4,0(a0)
    802024f4:	f822                	sd	s0,48(sp)
    802024f6:	4789                	li	a5,2
    802024f8:	842a                	mv	s0,a0
    802024fa:	0af71063          	bne	a4,a5,8020259a <filewrite+0xb4>
    802024fe:	e852                	sd	s4,16(sp)
    80202500:	8a32                	mv	s4,a2
    80202502:	08c05763          	blez	a2,80202590 <filewrite+0xaa>
    80202506:	e456                	sd	s5,8(sp)
    80202508:	6a85                	lui	s5,0x1
    8020250a:	e05a                	sd	s6,0(sp)
    8020250c:	f04a                	sd	s2,32(sp)
    8020250e:	ec4e                	sd	s3,24(sp)
    80202510:	8b2e                	mv	s6,a1
    80202512:	4481                	li	s1,0
    80202514:	c00a8a93          	addi	s5,s5,-1024 # c00 <_entry-0x801ff400>
    80202518:	a005                	j	80202538 <filewrite+0x52>
    8020251a:	501c                	lw	a5,32(s0)
    8020251c:	6c08                	ld	a0,24(s0)
    8020251e:	012787bb          	addw	a5,a5,s2
    80202522:	d01c                	sw	a5,32(s0)
    80202524:	606000ef          	jal	80202b2a <iunlock>
    80202528:	0c3010ef          	jal	80203dea <end_op>
    8020252c:	05299d63          	bne	s3,s2,80202586 <filewrite+0xa0>
    80202530:	013484bb          	addw	s1,s1,s3
    80202534:	0544d963          	bge	s1,s4,80202586 <filewrite+0xa0>
    80202538:	409a09bb          	subw	s3,s4,s1
    8020253c:	013ad363          	bge	s5,s3,80202542 <filewrite+0x5c>
    80202540:	89d6                	mv	s3,s5
    80202542:	04b010ef          	jal	80203d8c <begin_op>
    80202546:	6c08                	ld	a0,24(s0)
    80202548:	534000ef          	jal	80202a7c <ilock>
    8020254c:	5014                	lw	a3,32(s0)
    8020254e:	6c08                	ld	a0,24(s0)
    80202550:	874e                	mv	a4,s3
    80202552:	01648633          	add	a2,s1,s6
    80202556:	4581                	li	a1,0
    80202558:	1a7000ef          	jal	80202efe <writei>
    8020255c:	892a                	mv	s2,a0
    8020255e:	faa04ee3          	bgtz	a0,8020251a <filewrite+0x34>
    80202562:	6c08                	ld	a0,24(s0)
    80202564:	5c6000ef          	jal	80202b2a <iunlock>
    80202568:	083010ef          	jal	80203dea <end_op>
    8020256c:	7902                	ld	s2,32(sp)
    8020256e:	69e2                	ld	s3,24(sp)
    80202570:	6aa2                	ld	s5,8(sp)
    80202572:	6b02                	ld	s6,0(sp)
    80202574:	7442                	ld	s0,48(sp)
    80202576:	009a1f63          	bne	s4,s1,80202594 <filewrite+0xae>
    8020257a:	6a42                	ld	s4,16(sp)
    8020257c:	70e2                	ld	ra,56(sp)
    8020257e:	8526                	mv	a0,s1
    80202580:	74a2                	ld	s1,40(sp)
    80202582:	6121                	addi	sp,sp,64
    80202584:	8082                	ret
    80202586:	7902                	ld	s2,32(sp)
    80202588:	69e2                	ld	s3,24(sp)
    8020258a:	6aa2                	ld	s5,8(sp)
    8020258c:	6b02                	ld	s6,0(sp)
    8020258e:	b7dd                	j	80202574 <filewrite+0x8e>
    80202590:	4481                	li	s1,0
    80202592:	b7cd                	j	80202574 <filewrite+0x8e>
    80202594:	6a42                	ld	s4,16(sp)
    80202596:	54fd                	li	s1,-1
    80202598:	b7d5                	j	8020257c <filewrite+0x96>
    8020259a:	00005517          	auipc	a0,0x5
    8020259e:	f2650513          	addi	a0,a0,-218 # 802074c0 <etext+0x4c0>
    802025a2:	f04a                	sd	s2,32(sp)
    802025a4:	ec4e                	sd	s3,24(sp)
    802025a6:	e852                	sd	s4,16(sp)
    802025a8:	e456                	sd	s5,8(sp)
    802025aa:	e05a                	sd	s6,0(sp)
    802025ac:	ca5fd0ef          	jal	80200250 <panic>

00000000802025b0 <balloc>:
    802025b0:	715d                	addi	sp,sp,-80
    802025b2:	e85a                	sd	s6,16(sp)
    802025b4:	00012b17          	auipc	s6,0x12
    802025b8:	96cb0b13          	addi	s6,s6,-1684 # 80213f20 <sb>
    802025bc:	004b2783          	lw	a5,4(s6)
    802025c0:	e486                	sd	ra,72(sp)
    802025c2:	e0a2                	sd	s0,64(sp)
    802025c4:	cba5                	beqz	a5,80202634 <balloc+0x84>
    802025c6:	fc26                	sd	s1,56(sp)
    802025c8:	f84a                	sd	s2,48(sp)
    802025ca:	f44e                	sd	s3,40(sp)
    802025cc:	f052                	sd	s4,32(sp)
    802025ce:	ec56                	sd	s5,24(sp)
    802025d0:	84aa                	mv	s1,a0
    802025d2:	4a81                	li	s5,0
    802025d4:	4985                	li	s3,1
    802025d6:	6a09                	lui	s4,0x2
    802025d8:	6909                	lui	s2,0x2
    802025da:	01cb2783          	lw	a5,28(s6)
    802025de:	40dad59b          	sraiw	a1,s5,0xd
    802025e2:	8526                	mv	a0,s1
    802025e4:	9dbd                	addw	a1,a1,a5
    802025e6:	b4dff0ef          	jal	80202132 <bread>
    802025ea:	004b2803          	lw	a6,4(s6)
    802025ee:	000a841b          	sext.w	s0,s5
    802025f2:	4781                	li	a5,0
    802025f4:	a809                	j	80202606 <balloc+0x56>
    802025f6:	05074603          	lbu	a2,80(a4)
    802025fa:	00c6f5b3          	and	a1,a3,a2
    802025fe:	c9a1                	beqz	a1,8020264e <balloc+0x9e>
    80202600:	2405                	addiw	s0,s0,1
    80202602:	01478c63          	beq	a5,s4,8020261a <balloc+0x6a>
    80202606:	4037d713          	srai	a4,a5,0x3
    8020260a:	0077f693          	andi	a3,a5,7
    8020260e:	972a                	add	a4,a4,a0
    80202610:	00d996bb          	sllw	a3,s3,a3
    80202614:	2785                	addiw	a5,a5,1
    80202616:	ff0460e3          	bltu	s0,a6,802025f6 <balloc+0x46>
    8020261a:	c27ff0ef          	jal	80202240 <brelse>
    8020261e:	004b2783          	lw	a5,4(s6)
    80202622:	01590abb          	addw	s5,s2,s5
    80202626:	fafaeae3          	bltu	s5,a5,802025da <balloc+0x2a>
    8020262a:	74e2                	ld	s1,56(sp)
    8020262c:	7942                	ld	s2,48(sp)
    8020262e:	79a2                	ld	s3,40(sp)
    80202630:	7a02                	ld	s4,32(sp)
    80202632:	6ae2                	ld	s5,24(sp)
    80202634:	00005517          	auipc	a0,0x5
    80202638:	e9c50513          	addi	a0,a0,-356 # 802074d0 <etext+0x4d0>
    8020263c:	b1ffd0ef          	jal	8020015a <printf>
    80202640:	4401                	li	s0,0
    80202642:	60a6                	ld	ra,72(sp)
    80202644:	8522                	mv	a0,s0
    80202646:	6406                	ld	s0,64(sp)
    80202648:	6b42                	ld	s6,16(sp)
    8020264a:	6161                	addi	sp,sp,80
    8020264c:	8082                	ret
    8020264e:	8e55                	or	a2,a2,a3
    80202650:	04c70823          	sb	a2,80(a4)
    80202654:	e42a                	sd	a0,8(sp)
    80202656:	093010ef          	jal	80203ee8 <log_write>
    8020265a:	6522                	ld	a0,8(sp)
    8020265c:	be5ff0ef          	jal	80202240 <brelse>
    80202660:	60a6                	ld	ra,72(sp)
    80202662:	8522                	mv	a0,s0
    80202664:	6406                	ld	s0,64(sp)
    80202666:	74e2                	ld	s1,56(sp)
    80202668:	7942                	ld	s2,48(sp)
    8020266a:	79a2                	ld	s3,40(sp)
    8020266c:	7a02                	ld	s4,32(sp)
    8020266e:	6ae2                	ld	s5,24(sp)
    80202670:	6b42                	ld	s6,16(sp)
    80202672:	6161                	addi	sp,sp,80
    80202674:	8082                	ret

0000000080202676 <bmap>:
    80202676:	7179                	addi	sp,sp,-48
    80202678:	e84a                	sd	s2,16(sp)
    8020267a:	f406                	sd	ra,40(sp)
    8020267c:	f022                	sd	s0,32(sp)
    8020267e:	ec26                	sd	s1,24(sp)
    80202680:	47ad                	li	a5,11
    80202682:	892a                	mv	s2,a0
    80202684:	02b7e163          	bltu	a5,a1,802026a6 <bmap+0x30>
    80202688:	02059793          	slli	a5,a1,0x20
    8020268c:	01e7d593          	srli	a1,a5,0x1e
    80202690:	00b50433          	add	s0,a0,a1
    80202694:	4424                	lw	s1,72(s0)
    80202696:	c8c9                	beqz	s1,80202728 <bmap+0xb2>
    80202698:	70a2                	ld	ra,40(sp)
    8020269a:	7402                	ld	s0,32(sp)
    8020269c:	6942                	ld	s2,16(sp)
    8020269e:	8526                	mv	a0,s1
    802026a0:	64e2                	ld	s1,24(sp)
    802026a2:	6145                	addi	sp,sp,48
    802026a4:	8082                	ret
    802026a6:	ff45841b          	addiw	s0,a1,-12
    802026aa:	0004071b          	sext.w	a4,s0
    802026ae:	0ff00793          	li	a5,255
    802026b2:	0ae7e763          	bltu	a5,a4,80202760 <bmap+0xea>
    802026b6:	5d24                	lw	s1,120(a0)
    802026b8:	4108                	lw	a0,0(a0)
    802026ba:	e4c9                	bnez	s1,80202744 <bmap+0xce>
    802026bc:	ef5ff0ef          	jal	802025b0 <balloc>
    802026c0:	0005049b          	sext.w	s1,a0
    802026c4:	d8f1                	beqz	s1,80202698 <bmap+0x22>
    802026c6:	00092503          	lw	a0,0(s2) # 2000 <_entry-0x801fe000>
    802026ca:	e44e                	sd	s3,8(sp)
    802026cc:	85a6                	mv	a1,s1
    802026ce:	06992c23          	sw	s1,120(s2)
    802026d2:	a61ff0ef          	jal	80202132 <bread>
    802026d6:	89aa                	mv	s3,a0
    802026d8:	40000613          	li	a2,1024
    802026dc:	4581                	li	a1,0
    802026de:	05050513          	addi	a0,a0,80
    802026e2:	ea7fd0ef          	jal	80200588 <memset>
    802026e6:	854e                	mv	a0,s3
    802026e8:	001010ef          	jal	80203ee8 <log_write>
    802026ec:	854e                	mv	a0,s3
    802026ee:	b53ff0ef          	jal	80202240 <brelse>
    802026f2:	00092503          	lw	a0,0(s2)
    802026f6:	85a6                	mv	a1,s1
    802026f8:	a3bff0ef          	jal	80202132 <bread>
    802026fc:	02041713          	slli	a4,s0,0x20
    80202700:	05050793          	addi	a5,a0,80
    80202704:	01e75593          	srli	a1,a4,0x1e
    80202708:	00b78433          	add	s0,a5,a1
    8020270c:	4004                	lw	s1,0(s0)
    8020270e:	89aa                	mv	s3,a0
    80202710:	cc85                	beqz	s1,80202748 <bmap+0xd2>
    80202712:	854e                	mv	a0,s3
    80202714:	b2dff0ef          	jal	80202240 <brelse>
    80202718:	70a2                	ld	ra,40(sp)
    8020271a:	7402                	ld	s0,32(sp)
    8020271c:	69a2                	ld	s3,8(sp)
    8020271e:	6942                	ld	s2,16(sp)
    80202720:	8526                	mv	a0,s1
    80202722:	64e2                	ld	s1,24(sp)
    80202724:	6145                	addi	sp,sp,48
    80202726:	8082                	ret
    80202728:	4108                	lw	a0,0(a0)
    8020272a:	e87ff0ef          	jal	802025b0 <balloc>
    8020272e:	0005049b          	sext.w	s1,a0
    80202732:	d0bd                	beqz	s1,80202698 <bmap+0x22>
    80202734:	c424                	sw	s1,72(s0)
    80202736:	70a2                	ld	ra,40(sp)
    80202738:	7402                	ld	s0,32(sp)
    8020273a:	6942                	ld	s2,16(sp)
    8020273c:	8526                	mv	a0,s1
    8020273e:	64e2                	ld	s1,24(sp)
    80202740:	6145                	addi	sp,sp,48
    80202742:	8082                	ret
    80202744:	e44e                	sd	s3,8(sp)
    80202746:	bf45                	j	802026f6 <bmap+0x80>
    80202748:	00092503          	lw	a0,0(s2)
    8020274c:	e65ff0ef          	jal	802025b0 <balloc>
    80202750:	0005049b          	sext.w	s1,a0
    80202754:	dcdd                	beqz	s1,80202712 <bmap+0x9c>
    80202756:	c004                	sw	s1,0(s0)
    80202758:	854e                	mv	a0,s3
    8020275a:	78e010ef          	jal	80203ee8 <log_write>
    8020275e:	bf55                	j	80202712 <bmap+0x9c>
    80202760:	00005517          	auipc	a0,0x5
    80202764:	d8850513          	addi	a0,a0,-632 # 802074e8 <etext+0x4e8>
    80202768:	e44e                	sd	s3,8(sp)
    8020276a:	ae7fd0ef          	jal	80200250 <panic>

000000008020276e <iget>:
    8020276e:	7179                	addi	sp,sp,-48
    80202770:	ec26                	sd	s1,24(sp)
    80202772:	84aa                	mv	s1,a0
    80202774:	00010517          	auipc	a0,0x10
    80202778:	cbc50513          	addi	a0,a0,-836 # 80212430 <itable>
    8020277c:	f022                	sd	s0,32(sp)
    8020277e:	e84a                	sd	s2,16(sp)
    80202780:	e44e                	sd	s3,8(sp)
    80202782:	f406                	sd	ra,40(sp)
    80202784:	89ae                	mv	s3,a1
    80202786:	b13fd0ef          	jal	80200298 <acquire>
    8020278a:	4901                	li	s2,0
    8020278c:	00010417          	auipc	s0,0x10
    80202790:	cb440413          	addi	s0,s0,-844 # 80212440 <itable+0x10>
    80202794:	00011697          	auipc	a3,0x11
    80202798:	5ac68693          	addi	a3,a3,1452 # 80213d40 <disk>
    8020279c:	a801                	j	802027ac <iget+0x3e>
    8020279e:	4018                	lw	a4,0(s0)
    802027a0:	04970d63          	beq	a4,s1,802027fa <iget+0x8c>
    802027a4:	08040413          	addi	s0,s0,128
    802027a8:	00d40d63          	beq	s0,a3,802027c2 <iget+0x54>
    802027ac:	441c                	lw	a5,8(s0)
    802027ae:	fef048e3          	bgtz	a5,8020279e <iget+0x30>
    802027b2:	fe0919e3          	bnez	s2,802027a4 <iget+0x36>
    802027b6:	e7b5                	bnez	a5,80202822 <iget+0xb4>
    802027b8:	8922                	mv	s2,s0
    802027ba:	08040413          	addi	s0,s0,128
    802027be:	fed417e3          	bne	s0,a3,802027ac <iget+0x3e>
    802027c2:	06090863          	beqz	s2,80202832 <iget+0xc4>
    802027c6:	1482                	slli	s1,s1,0x20
    802027c8:	1982                	slli	s3,s3,0x20
    802027ca:	9081                	srli	s1,s1,0x20
    802027cc:	0134e4b3          	or	s1,s1,s3
    802027d0:	4785                	li	a5,1
    802027d2:	00993023          	sd	s1,0(s2)
    802027d6:	00f92423          	sw	a5,8(s2)
    802027da:	02092c23          	sw	zero,56(s2)
    802027de:	00010517          	auipc	a0,0x10
    802027e2:	c5250513          	addi	a0,a0,-942 # 80212430 <itable>
    802027e6:	ac5fd0ef          	jal	802002aa <release>
    802027ea:	70a2                	ld	ra,40(sp)
    802027ec:	7402                	ld	s0,32(sp)
    802027ee:	64e2                	ld	s1,24(sp)
    802027f0:	69a2                	ld	s3,8(sp)
    802027f2:	854a                	mv	a0,s2
    802027f4:	6942                	ld	s2,16(sp)
    802027f6:	6145                	addi	sp,sp,48
    802027f8:	8082                	ret
    802027fa:	4058                	lw	a4,4(s0)
    802027fc:	fb3714e3          	bne	a4,s3,802027a4 <iget+0x36>
    80202800:	2785                	addiw	a5,a5,1
    80202802:	00010517          	auipc	a0,0x10
    80202806:	c2e50513          	addi	a0,a0,-978 # 80212430 <itable>
    8020280a:	c41c                	sw	a5,8(s0)
    8020280c:	a9ffd0ef          	jal	802002aa <release>
    80202810:	8922                	mv	s2,s0
    80202812:	70a2                	ld	ra,40(sp)
    80202814:	7402                	ld	s0,32(sp)
    80202816:	64e2                	ld	s1,24(sp)
    80202818:	69a2                	ld	s3,8(sp)
    8020281a:	854a                	mv	a0,s2
    8020281c:	6942                	ld	s2,16(sp)
    8020281e:	6145                	addi	sp,sp,48
    80202820:	8082                	ret
    80202822:	08040413          	addi	s0,s0,128
    80202826:	00d40663          	beq	s0,a3,80202832 <iget+0xc4>
    8020282a:	441c                	lw	a5,8(s0)
    8020282c:	f6f049e3          	bgtz	a5,8020279e <iget+0x30>
    80202830:	b759                	j	802027b6 <iget+0x48>
    80202832:	00005517          	auipc	a0,0x5
    80202836:	cce50513          	addi	a0,a0,-818 # 80207500 <etext+0x500>
    8020283a:	a17fd0ef          	jal	80200250 <panic>

000000008020283e <bfree>:
    8020283e:	1101                	addi	sp,sp,-32
    80202840:	00011797          	auipc	a5,0x11
    80202844:	6fc7a783          	lw	a5,1788(a5) # 80213f3c <sb+0x1c>
    80202848:	e822                	sd	s0,16(sp)
    8020284a:	842e                	mv	s0,a1
    8020284c:	00d5d59b          	srliw	a1,a1,0xd
    80202850:	9dbd                	addw	a1,a1,a5
    80202852:	ec06                	sd	ra,24(sp)
    80202854:	e426                	sd	s1,8(sp)
    80202856:	8ddff0ef          	jal	80202132 <bread>
    8020285a:	4034579b          	sraiw	a5,s0,0x3
    8020285e:	3ff7f793          	andi	a5,a5,1023
    80202862:	97aa                	add	a5,a5,a0
    80202864:	0507c683          	lbu	a3,80(a5)
    80202868:	881d                	andi	s0,s0,7
    8020286a:	4705                	li	a4,1
    8020286c:	0087173b          	sllw	a4,a4,s0
    80202870:	00d77633          	and	a2,a4,a3
    80202874:	c205                	beqz	a2,80202894 <bfree+0x56>
    80202876:	fff74713          	not	a4,a4
    8020287a:	8ef9                	and	a3,a3,a4
    8020287c:	04d78823          	sb	a3,80(a5)
    80202880:	84aa                	mv	s1,a0
    80202882:	666010ef          	jal	80203ee8 <log_write>
    80202886:	6442                	ld	s0,16(sp)
    80202888:	60e2                	ld	ra,24(sp)
    8020288a:	8526                	mv	a0,s1
    8020288c:	64a2                	ld	s1,8(sp)
    8020288e:	6105                	addi	sp,sp,32
    80202890:	9b1ff06f          	j	80202240 <brelse>
    80202894:	00005517          	auipc	a0,0x5
    80202898:	c7c50513          	addi	a0,a0,-900 # 80207510 <etext+0x510>
    8020289c:	9b5fd0ef          	jal	80200250 <panic>

00000000802028a0 <readsb>:
    802028a0:	1101                	addi	sp,sp,-32
    802028a2:	e426                	sd	s1,8(sp)
    802028a4:	84ae                	mv	s1,a1
    802028a6:	4585                	li	a1,1
    802028a8:	ec06                	sd	ra,24(sp)
    802028aa:	e822                	sd	s0,16(sp)
    802028ac:	887ff0ef          	jal	80202132 <bread>
    802028b0:	842a                	mv	s0,a0
    802028b2:	05050593          	addi	a1,a0,80
    802028b6:	02000613          	li	a2,32
    802028ba:	8526                	mv	a0,s1
    802028bc:	ce9fd0ef          	jal	802005a4 <memmove>
    802028c0:	8522                	mv	a0,s0
    802028c2:	6442                	ld	s0,16(sp)
    802028c4:	60e2                	ld	ra,24(sp)
    802028c6:	64a2                	ld	s1,8(sp)
    802028c8:	6105                	addi	sp,sp,32
    802028ca:	977ff06f          	j	80202240 <brelse>

00000000802028ce <iinit>:
    802028ce:	1101                	addi	sp,sp,-32
    802028d0:	00005597          	auipc	a1,0x5
    802028d4:	c5858593          	addi	a1,a1,-936 # 80207528 <etext+0x528>
    802028d8:	00010517          	auipc	a0,0x10
    802028dc:	b5850513          	addi	a0,a0,-1192 # 80212430 <itable>
    802028e0:	e822                	sd	s0,16(sp)
    802028e2:	e426                	sd	s1,8(sp)
    802028e4:	e04a                	sd	s2,0(sp)
    802028e6:	ec06                	sd	ra,24(sp)
    802028e8:	00010417          	auipc	s0,0x10
    802028ec:	b6840413          	addi	s0,s0,-1176 # 80212450 <itable+0x20>
    802028f0:	9a1fd0ef          	jal	80200290 <initlock>
    802028f4:	00011917          	auipc	s2,0x11
    802028f8:	45c90913          	addi	s2,s2,1116 # 80213d50 <disk+0x10>
    802028fc:	00005497          	auipc	s1,0x5
    80202900:	c3448493          	addi	s1,s1,-972 # 80207530 <etext+0x530>
    80202904:	8522                	mv	a0,s0
    80202906:	85a6                	mv	a1,s1
    80202908:	08040413          	addi	s0,s0,128
    8020290c:	1cd000ef          	jal	802032d8 <initsleeplock>
    80202910:	ff241ae3          	bne	s0,s2,80202904 <iinit+0x36>
    80202914:	60e2                	ld	ra,24(sp)
    80202916:	6442                	ld	s0,16(sp)
    80202918:	64a2                	ld	s1,8(sp)
    8020291a:	6902                	ld	s2,0(sp)
    8020291c:	6105                	addi	sp,sp,32
    8020291e:	8082                	ret

0000000080202920 <ialloc>:
    80202920:	7139                	addi	sp,sp,-64
    80202922:	ec4e                	sd	s3,24(sp)
    80202924:	00011997          	auipc	s3,0x11
    80202928:	5fc98993          	addi	s3,s3,1532 # 80213f20 <sb>
    8020292c:	00c9a703          	lw	a4,12(s3)
    80202930:	fc06                	sd	ra,56(sp)
    80202932:	4785                	li	a5,1
    80202934:	08e7f563          	bgeu	a5,a4,802029be <ialloc+0x9e>
    80202938:	f822                	sd	s0,48(sp)
    8020293a:	e852                	sd	s4,16(sp)
    8020293c:	e456                	sd	s5,8(sp)
    8020293e:	f426                	sd	s1,40(sp)
    80202940:	f04a                	sd	s2,32(sp)
    80202942:	8a2a                	mv	s4,a0
    80202944:	8aae                	mv	s5,a1
    80202946:	4405                	li	s0,1
    80202948:	a811                	j	8020295c <ialloc+0x3c>
    8020294a:	8f7ff0ef          	jal	80202240 <brelse>
    8020294e:	00c9a703          	lw	a4,12(s3)
    80202952:	0405                	addi	s0,s0,1
    80202954:	0004079b          	sext.w	a5,s0
    80202958:	04e7fe63          	bgeu	a5,a4,802029b4 <ialloc+0x94>
    8020295c:	0189a783          	lw	a5,24(s3)
    80202960:	00445593          	srli	a1,s0,0x4
    80202964:	8552                	mv	a0,s4
    80202966:	9dbd                	addw	a1,a1,a5
    80202968:	fcaff0ef          	jal	80202132 <bread>
    8020296c:	00f47793          	andi	a5,s0,15
    80202970:	079a                	slli	a5,a5,0x6
    80202972:	05050913          	addi	s2,a0,80
    80202976:	993e                	add	s2,s2,a5
    80202978:	00091783          	lh	a5,0(s2)
    8020297c:	84aa                	mv	s1,a0
    8020297e:	f7f1                	bnez	a5,8020294a <ialloc+0x2a>
    80202980:	4581                	li	a1,0
    80202982:	04000613          	li	a2,64
    80202986:	854a                	mv	a0,s2
    80202988:	c01fd0ef          	jal	80200588 <memset>
    8020298c:	8526                	mv	a0,s1
    8020298e:	01591023          	sh	s5,0(s2)
    80202992:	556010ef          	jal	80203ee8 <log_write>
    80202996:	8526                	mv	a0,s1
    80202998:	8a9ff0ef          	jal	80202240 <brelse>
    8020299c:	0004059b          	sext.w	a1,s0
    802029a0:	7442                	ld	s0,48(sp)
    802029a2:	74a2                	ld	s1,40(sp)
    802029a4:	7902                	ld	s2,32(sp)
    802029a6:	6aa2                	ld	s5,8(sp)
    802029a8:	70e2                	ld	ra,56(sp)
    802029aa:	69e2                	ld	s3,24(sp)
    802029ac:	8552                	mv	a0,s4
    802029ae:	6a42                	ld	s4,16(sp)
    802029b0:	6121                	addi	sp,sp,64
    802029b2:	bb75                	j	8020276e <iget>
    802029b4:	7442                	ld	s0,48(sp)
    802029b6:	74a2                	ld	s1,40(sp)
    802029b8:	7902                	ld	s2,32(sp)
    802029ba:	6a42                	ld	s4,16(sp)
    802029bc:	6aa2                	ld	s5,8(sp)
    802029be:	00005517          	auipc	a0,0x5
    802029c2:	b7a50513          	addi	a0,a0,-1158 # 80207538 <etext+0x538>
    802029c6:	f94fd0ef          	jal	8020015a <printf>
    802029ca:	70e2                	ld	ra,56(sp)
    802029cc:	69e2                	ld	s3,24(sp)
    802029ce:	4501                	li	a0,0
    802029d0:	6121                	addi	sp,sp,64
    802029d2:	8082                	ret

00000000802029d4 <iupdate>:
    802029d4:	415c                	lw	a5,4(a0)
    802029d6:	1101                	addi	sp,sp,-32
    802029d8:	e822                	sd	s0,16(sp)
    802029da:	842a                	mv	s0,a0
    802029dc:	4108                	lw	a0,0(a0)
    802029de:	0047d79b          	srliw	a5,a5,0x4
    802029e2:	00011597          	auipc	a1,0x11
    802029e6:	5565a583          	lw	a1,1366(a1) # 80213f38 <sb+0x18>
    802029ea:	9dbd                	addw	a1,a1,a5
    802029ec:	ec06                	sd	ra,24(sp)
    802029ee:	e426                	sd	s1,8(sp)
    802029f0:	f42ff0ef          	jal	80202132 <bread>
    802029f4:	405c                	lw	a5,4(s0)
    802029f6:	03c45883          	lhu	a7,60(s0)
    802029fa:	03e45803          	lhu	a6,62(s0)
    802029fe:	04045583          	lhu	a1,64(s0)
    80202a02:	04245603          	lhu	a2,66(s0)
    80202a06:	4074                	lw	a3,68(s0)
    80202a08:	00f7f713          	andi	a4,a5,15
    80202a0c:	071a                	slli	a4,a4,0x6
    80202a0e:	05050793          	addi	a5,a0,80
    80202a12:	97ba                	add	a5,a5,a4
    80202a14:	84aa                	mv	s1,a0
    80202a16:	00b79223          	sh	a1,4(a5)
    80202a1a:	00c79323          	sh	a2,6(a5)
    80202a1e:	04840593          	addi	a1,s0,72
    80202a22:	01179023          	sh	a7,0(a5)
    80202a26:	01079123          	sh	a6,2(a5)
    80202a2a:	c794                	sw	a3,8(a5)
    80202a2c:	03400613          	li	a2,52
    80202a30:	00c78513          	addi	a0,a5,12
    80202a34:	b71fd0ef          	jal	802005a4 <memmove>
    80202a38:	8526                	mv	a0,s1
    80202a3a:	4ae010ef          	jal	80203ee8 <log_write>
    80202a3e:	6442                	ld	s0,16(sp)
    80202a40:	60e2                	ld	ra,24(sp)
    80202a42:	8526                	mv	a0,s1
    80202a44:	64a2                	ld	s1,8(sp)
    80202a46:	6105                	addi	sp,sp,32
    80202a48:	ff8ff06f          	j	80202240 <brelse>

0000000080202a4c <idup>:
    80202a4c:	1141                	addi	sp,sp,-16
    80202a4e:	e022                	sd	s0,0(sp)
    80202a50:	842a                	mv	s0,a0
    80202a52:	00010517          	auipc	a0,0x10
    80202a56:	9de50513          	addi	a0,a0,-1570 # 80212430 <itable>
    80202a5a:	e406                	sd	ra,8(sp)
    80202a5c:	83dfd0ef          	jal	80200298 <acquire>
    80202a60:	441c                	lw	a5,8(s0)
    80202a62:	00010517          	auipc	a0,0x10
    80202a66:	9ce50513          	addi	a0,a0,-1586 # 80212430 <itable>
    80202a6a:	2785                	addiw	a5,a5,1
    80202a6c:	c41c                	sw	a5,8(s0)
    80202a6e:	83dfd0ef          	jal	802002aa <release>
    80202a72:	60a2                	ld	ra,8(sp)
    80202a74:	8522                	mv	a0,s0
    80202a76:	6402                	ld	s0,0(sp)
    80202a78:	0141                	addi	sp,sp,16
    80202a7a:	8082                	ret

0000000080202a7c <ilock>:
    80202a7c:	1101                	addi	sp,sp,-32
    80202a7e:	ec06                	sd	ra,24(sp)
    80202a80:	e822                	sd	s0,16(sp)
    80202a82:	c559                	beqz	a0,80202b10 <ilock+0x94>
    80202a84:	451c                	lw	a5,8(a0)
    80202a86:	842a                	mv	s0,a0
    80202a88:	08f05463          	blez	a5,80202b10 <ilock+0x94>
    80202a8c:	0541                	addi	a0,a0,16
    80202a8e:	079000ef          	jal	80203306 <acquiresleep>
    80202a92:	5c1c                	lw	a5,56(s0)
    80202a94:	c789                	beqz	a5,80202a9e <ilock+0x22>
    80202a96:	60e2                	ld	ra,24(sp)
    80202a98:	6442                	ld	s0,16(sp)
    80202a9a:	6105                	addi	sp,sp,32
    80202a9c:	8082                	ret
    80202a9e:	405c                	lw	a5,4(s0)
    80202aa0:	4008                	lw	a0,0(s0)
    80202aa2:	00011597          	auipc	a1,0x11
    80202aa6:	4965a583          	lw	a1,1174(a1) # 80213f38 <sb+0x18>
    80202aaa:	0047d79b          	srliw	a5,a5,0x4
    80202aae:	9dbd                	addw	a1,a1,a5
    80202ab0:	e426                	sd	s1,8(sp)
    80202ab2:	e80ff0ef          	jal	80202132 <bread>
    80202ab6:	405c                	lw	a5,4(s0)
    80202ab8:	05050593          	addi	a1,a0,80
    80202abc:	84aa                	mv	s1,a0
    80202abe:	8bbd                	andi	a5,a5,15
    80202ac0:	079a                	slli	a5,a5,0x6
    80202ac2:	95be                	add	a1,a1,a5
    80202ac4:	0005d503          	lhu	a0,0(a1)
    80202ac8:	0025d603          	lhu	a2,2(a1)
    80202acc:	0065d703          	lhu	a4,6(a1)
    80202ad0:	459c                	lw	a5,8(a1)
    80202ad2:	0045d683          	lhu	a3,4(a1)
    80202ad6:	04e41123          	sh	a4,66(s0)
    80202ada:	c07c                	sw	a5,68(s0)
    80202adc:	02a41e23          	sh	a0,60(s0)
    80202ae0:	02c41f23          	sh	a2,62(s0)
    80202ae4:	04d41023          	sh	a3,64(s0)
    80202ae8:	03400613          	li	a2,52
    80202aec:	05b1                	addi	a1,a1,12
    80202aee:	04840513          	addi	a0,s0,72
    80202af2:	ab3fd0ef          	jal	802005a4 <memmove>
    80202af6:	8526                	mv	a0,s1
    80202af8:	f48ff0ef          	jal	80202240 <brelse>
    80202afc:	03c41783          	lh	a5,60(s0)
    80202b00:	4705                	li	a4,1
    80202b02:	dc18                	sw	a4,56(s0)
    80202b04:	cf89                	beqz	a5,80202b1e <ilock+0xa2>
    80202b06:	60e2                	ld	ra,24(sp)
    80202b08:	6442                	ld	s0,16(sp)
    80202b0a:	64a2                	ld	s1,8(sp)
    80202b0c:	6105                	addi	sp,sp,32
    80202b0e:	8082                	ret
    80202b10:	00005517          	auipc	a0,0x5
    80202b14:	a4050513          	addi	a0,a0,-1472 # 80207550 <etext+0x550>
    80202b18:	e426                	sd	s1,8(sp)
    80202b1a:	f36fd0ef          	jal	80200250 <panic>
    80202b1e:	00005517          	auipc	a0,0x5
    80202b22:	a3a50513          	addi	a0,a0,-1478 # 80207558 <etext+0x558>
    80202b26:	f2afd0ef          	jal	80200250 <panic>

0000000080202b2a <iunlock>:
    80202b2a:	1101                	addi	sp,sp,-32
    80202b2c:	ec06                	sd	ra,24(sp)
    80202b2e:	e822                	sd	s0,16(sp)
    80202b30:	e426                	sd	s1,8(sp)
    80202b32:	c115                	beqz	a0,80202b56 <iunlock+0x2c>
    80202b34:	01050493          	addi	s1,a0,16
    80202b38:	842a                	mv	s0,a0
    80202b3a:	8526                	mv	a0,s1
    80202b3c:	03d000ef          	jal	80203378 <holdingsleep>
    80202b40:	c919                	beqz	a0,80202b56 <iunlock+0x2c>
    80202b42:	441c                	lw	a5,8(s0)
    80202b44:	00f05963          	blez	a5,80202b56 <iunlock+0x2c>
    80202b48:	6442                	ld	s0,16(sp)
    80202b4a:	60e2                	ld	ra,24(sp)
    80202b4c:	8526                	mv	a0,s1
    80202b4e:	64a2                	ld	s1,8(sp)
    80202b50:	6105                	addi	sp,sp,32
    80202b52:	7f60006f          	j	80203348 <releasesleep>
    80202b56:	00005517          	auipc	a0,0x5
    80202b5a:	a1250513          	addi	a0,a0,-1518 # 80207568 <etext+0x568>
    80202b5e:	ef2fd0ef          	jal	80200250 <panic>

0000000080202b62 <itrunc>:
    80202b62:	7179                	addi	sp,sp,-48
    80202b64:	f022                	sd	s0,32(sp)
    80202b66:	ec26                	sd	s1,24(sp)
    80202b68:	e84a                	sd	s2,16(sp)
    80202b6a:	f406                	sd	ra,40(sp)
    80202b6c:	892a                	mv	s2,a0
    80202b6e:	04850413          	addi	s0,a0,72
    80202b72:	07850493          	addi	s1,a0,120
    80202b76:	a021                	j	80202b7e <itrunc+0x1c>
    80202b78:	0411                	addi	s0,s0,4
    80202b7a:	00940d63          	beq	s0,s1,80202b94 <itrunc+0x32>
    80202b7e:	400c                	lw	a1,0(s0)
    80202b80:	dde5                	beqz	a1,80202b78 <itrunc+0x16>
    80202b82:	00092503          	lw	a0,0(s2)
    80202b86:	0411                	addi	s0,s0,4
    80202b88:	cb7ff0ef          	jal	8020283e <bfree>
    80202b8c:	fe042e23          	sw	zero,-4(s0)
    80202b90:	fe9417e3          	bne	s0,s1,80202b7e <itrunc+0x1c>
    80202b94:	07892583          	lw	a1,120(s2)
    80202b98:	e991                	bnez	a1,80202bac <itrunc+0x4a>
    80202b9a:	7402                	ld	s0,32(sp)
    80202b9c:	70a2                	ld	ra,40(sp)
    80202b9e:	64e2                	ld	s1,24(sp)
    80202ba0:	04092223          	sw	zero,68(s2)
    80202ba4:	854a                	mv	a0,s2
    80202ba6:	6942                	ld	s2,16(sp)
    80202ba8:	6145                	addi	sp,sp,48
    80202baa:	b52d                	j	802029d4 <iupdate>
    80202bac:	00092503          	lw	a0,0(s2)
    80202bb0:	e44e                	sd	s3,8(sp)
    80202bb2:	d80ff0ef          	jal	80202132 <bread>
    80202bb6:	89aa                	mv	s3,a0
    80202bb8:	05050413          	addi	s0,a0,80
    80202bbc:	45050493          	addi	s1,a0,1104
    80202bc0:	a021                	j	80202bc8 <itrunc+0x66>
    80202bc2:	0411                	addi	s0,s0,4
    80202bc4:	00940b63          	beq	s0,s1,80202bda <itrunc+0x78>
    80202bc8:	400c                	lw	a1,0(s0)
    80202bca:	dde5                	beqz	a1,80202bc2 <itrunc+0x60>
    80202bcc:	00092503          	lw	a0,0(s2)
    80202bd0:	0411                	addi	s0,s0,4
    80202bd2:	c6dff0ef          	jal	8020283e <bfree>
    80202bd6:	fe9419e3          	bne	s0,s1,80202bc8 <itrunc+0x66>
    80202bda:	854e                	mv	a0,s3
    80202bdc:	e64ff0ef          	jal	80202240 <brelse>
    80202be0:	07892583          	lw	a1,120(s2)
    80202be4:	00092503          	lw	a0,0(s2)
    80202be8:	c57ff0ef          	jal	8020283e <bfree>
    80202bec:	69a2                	ld	s3,8(sp)
    80202bee:	06092c23          	sw	zero,120(s2)
    80202bf2:	b765                	j	80202b9a <itrunc+0x38>

0000000080202bf4 <iput>:
    80202bf4:	1101                	addi	sp,sp,-32
    80202bf6:	e822                	sd	s0,16(sp)
    80202bf8:	842a                	mv	s0,a0
    80202bfa:	00010517          	auipc	a0,0x10
    80202bfe:	83650513          	addi	a0,a0,-1994 # 80212430 <itable>
    80202c02:	ec06                	sd	ra,24(sp)
    80202c04:	e94fd0ef          	jal	80200298 <acquire>
    80202c08:	441c                	lw	a5,8(s0)
    80202c0a:	4705                	li	a4,1
    80202c0c:	00e78d63          	beq	a5,a4,80202c26 <iput+0x32>
    80202c10:	37fd                	addiw	a5,a5,-1
    80202c12:	c41c                	sw	a5,8(s0)
    80202c14:	6442                	ld	s0,16(sp)
    80202c16:	60e2                	ld	ra,24(sp)
    80202c18:	00010517          	auipc	a0,0x10
    80202c1c:	81850513          	addi	a0,a0,-2024 # 80212430 <itable>
    80202c20:	6105                	addi	sp,sp,32
    80202c22:	e88fd06f          	j	802002aa <release>
    80202c26:	5c18                	lw	a4,56(s0)
    80202c28:	d765                	beqz	a4,80202c10 <iput+0x1c>
    80202c2a:	04241703          	lh	a4,66(s0)
    80202c2e:	f36d                	bnez	a4,80202c10 <iput+0x1c>
    80202c30:	e426                	sd	s1,8(sp)
    80202c32:	01040493          	addi	s1,s0,16
    80202c36:	8526                	mv	a0,s1
    80202c38:	6ce000ef          	jal	80203306 <acquiresleep>
    80202c3c:	0000f517          	auipc	a0,0xf
    80202c40:	7f450513          	addi	a0,a0,2036 # 80212430 <itable>
    80202c44:	e66fd0ef          	jal	802002aa <release>
    80202c48:	8522                	mv	a0,s0
    80202c4a:	f19ff0ef          	jal	80202b62 <itrunc>
    80202c4e:	8522                	mv	a0,s0
    80202c50:	02041e23          	sh	zero,60(s0)
    80202c54:	d81ff0ef          	jal	802029d4 <iupdate>
    80202c58:	8526                	mv	a0,s1
    80202c5a:	02042c23          	sw	zero,56(s0)
    80202c5e:	6ea000ef          	jal	80203348 <releasesleep>
    80202c62:	0000f517          	auipc	a0,0xf
    80202c66:	7ce50513          	addi	a0,a0,1998 # 80212430 <itable>
    80202c6a:	e2efd0ef          	jal	80200298 <acquire>
    80202c6e:	441c                	lw	a5,8(s0)
    80202c70:	64a2                	ld	s1,8(sp)
    80202c72:	bf79                	j	80202c10 <iput+0x1c>

0000000080202c74 <iunlockput>:
    80202c74:	1101                	addi	sp,sp,-32
    80202c76:	ec06                	sd	ra,24(sp)
    80202c78:	e822                	sd	s0,16(sp)
    80202c7a:	e426                	sd	s1,8(sp)
    80202c7c:	c505                	beqz	a0,80202ca4 <iunlockput+0x30>
    80202c7e:	01050493          	addi	s1,a0,16
    80202c82:	842a                	mv	s0,a0
    80202c84:	8526                	mv	a0,s1
    80202c86:	6f2000ef          	jal	80203378 <holdingsleep>
    80202c8a:	cd09                	beqz	a0,80202ca4 <iunlockput+0x30>
    80202c8c:	441c                	lw	a5,8(s0)
    80202c8e:	00f05b63          	blez	a5,80202ca4 <iunlockput+0x30>
    80202c92:	8526                	mv	a0,s1
    80202c94:	6b4000ef          	jal	80203348 <releasesleep>
    80202c98:	8522                	mv	a0,s0
    80202c9a:	6442                	ld	s0,16(sp)
    80202c9c:	60e2                	ld	ra,24(sp)
    80202c9e:	64a2                	ld	s1,8(sp)
    80202ca0:	6105                	addi	sp,sp,32
    80202ca2:	bf89                	j	80202bf4 <iput>
    80202ca4:	00005517          	auipc	a0,0x5
    80202ca8:	8c450513          	addi	a0,a0,-1852 # 80207568 <etext+0x568>
    80202cac:	da4fd0ef          	jal	80200250 <panic>

0000000080202cb0 <ireclaim>:
    80202cb0:	7139                	addi	sp,sp,-64
    80202cb2:	f04a                	sd	s2,32(sp)
    80202cb4:	00011917          	auipc	s2,0x11
    80202cb8:	26c90913          	addi	s2,s2,620 # 80213f20 <sb>
    80202cbc:	00c92783          	lw	a5,12(s2)
    80202cc0:	f822                	sd	s0,48(sp)
    80202cc2:	fc06                	sd	ra,56(sp)
    80202cc4:	4405                	li	s0,1
    80202cc6:	0af47a63          	bgeu	s0,a5,80202d7a <ireclaim+0xca>
    80202cca:	ec4e                	sd	s3,24(sp)
    80202ccc:	e852                	sd	s4,16(sp)
    80202cce:	e456                	sd	s5,8(sp)
    80202cd0:	f426                	sd	s1,40(sp)
    80202cd2:	89aa                	mv	s3,a0
    80202cd4:	4a85                	li	s5,1
    80202cd6:	00005a17          	auipc	s4,0x5
    80202cda:	89aa0a13          	addi	s4,s4,-1894 # 80207570 <etext+0x570>
    80202cde:	a811                	j	80202cf2 <ireclaim+0x42>
    80202ce0:	d60ff0ef          	jal	80202240 <brelse>
    80202ce4:	00c92783          	lw	a5,12(s2)
    80202ce8:	0405                	addi	s0,s0,1
    80202cea:	00040a9b          	sext.w	s5,s0
    80202cee:	08faf263          	bgeu	s5,a5,80202d72 <ireclaim+0xc2>
    80202cf2:	01892783          	lw	a5,24(s2)
    80202cf6:	00445593          	srli	a1,s0,0x4
    80202cfa:	854e                	mv	a0,s3
    80202cfc:	9dbd                	addw	a1,a1,a5
    80202cfe:	c34ff0ef          	jal	80202132 <bread>
    80202d02:	00faf793          	andi	a5,s5,15
    80202d06:	05050713          	addi	a4,a0,80
    80202d0a:	079a                	slli	a5,a5,0x6
    80202d0c:	97ba                	add	a5,a5,a4
    80202d0e:	00079703          	lh	a4,0(a5)
    80202d12:	84aa                	mv	s1,a0
    80202d14:	d771                	beqz	a4,80202ce0 <ireclaim+0x30>
    80202d16:	00679783          	lh	a5,6(a5)
    80202d1a:	f3f9                	bnez	a5,80202ce0 <ireclaim+0x30>
    80202d1c:	85d6                	mv	a1,s5
    80202d1e:	8552                	mv	a0,s4
    80202d20:	c3afd0ef          	jal	8020015a <printf>
    80202d24:	85d6                	mv	a1,s5
    80202d26:	854e                	mv	a0,s3
    80202d28:	a47ff0ef          	jal	8020276e <iget>
    80202d2c:	87aa                	mv	a5,a0
    80202d2e:	8526                	mv	a0,s1
    80202d30:	84be                	mv	s1,a5
    80202d32:	d0eff0ef          	jal	80202240 <brelse>
    80202d36:	d4dd                	beqz	s1,80202ce4 <ireclaim+0x34>
    80202d38:	054010ef          	jal	80203d8c <begin_op>
    80202d3c:	8526                	mv	a0,s1
    80202d3e:	d3fff0ef          	jal	80202a7c <ilock>
    80202d42:	01048a93          	addi	s5,s1,16
    80202d46:	8556                	mv	a0,s5
    80202d48:	630000ef          	jal	80203378 <holdingsleep>
    80202d4c:	cd05                	beqz	a0,80202d84 <ireclaim+0xd4>
    80202d4e:	449c                	lw	a5,8(s1)
    80202d50:	02f05a63          	blez	a5,80202d84 <ireclaim+0xd4>
    80202d54:	8556                	mv	a0,s5
    80202d56:	5f2000ef          	jal	80203348 <releasesleep>
    80202d5a:	8526                	mv	a0,s1
    80202d5c:	e99ff0ef          	jal	80202bf4 <iput>
    80202d60:	08a010ef          	jal	80203dea <end_op>
    80202d64:	00c92783          	lw	a5,12(s2)
    80202d68:	0405                	addi	s0,s0,1
    80202d6a:	00040a9b          	sext.w	s5,s0
    80202d6e:	f8fae2e3          	bltu	s5,a5,80202cf2 <ireclaim+0x42>
    80202d72:	74a2                	ld	s1,40(sp)
    80202d74:	69e2                	ld	s3,24(sp)
    80202d76:	6a42                	ld	s4,16(sp)
    80202d78:	6aa2                	ld	s5,8(sp)
    80202d7a:	70e2                	ld	ra,56(sp)
    80202d7c:	7442                	ld	s0,48(sp)
    80202d7e:	7902                	ld	s2,32(sp)
    80202d80:	6121                	addi	sp,sp,64
    80202d82:	8082                	ret
    80202d84:	00004517          	auipc	a0,0x4
    80202d88:	7e450513          	addi	a0,a0,2020 # 80207568 <etext+0x568>
    80202d8c:	cc4fd0ef          	jal	80200250 <panic>

0000000080202d90 <fsinit>:
    80202d90:	1101                	addi	sp,sp,-32
    80202d92:	4585                	li	a1,1
    80202d94:	ec06                	sd	ra,24(sp)
    80202d96:	e822                	sd	s0,16(sp)
    80202d98:	e426                	sd	s1,8(sp)
    80202d9a:	842a                	mv	s0,a0
    80202d9c:	b96ff0ef          	jal	80202132 <bread>
    80202da0:	05050593          	addi	a1,a0,80
    80202da4:	84aa                	mv	s1,a0
    80202da6:	02000613          	li	a2,32
    80202daa:	00011517          	auipc	a0,0x11
    80202dae:	17650513          	addi	a0,a0,374 # 80213f20 <sb>
    80202db2:	ff2fd0ef          	jal	802005a4 <memmove>
    80202db6:	8526                	mv	a0,s1
    80202db8:	c88ff0ef          	jal	80202240 <brelse>
    80202dbc:	00011597          	auipc	a1,0x11
    80202dc0:	16458593          	addi	a1,a1,356 # 80213f20 <sb>
    80202dc4:	4198                	lw	a4,0(a1)
    80202dc6:	102037b7          	lui	a5,0x10203
    80202dca:	04078793          	addi	a5,a5,64 # 10203040 <_entry-0x6fffcfc0>
    80202dce:	00f71b63          	bne	a4,a5,80202de4 <fsinit+0x54>
    80202dd2:	8522                	mv	a0,s0
    80202dd4:	745000ef          	jal	80203d18 <initlog>
    80202dd8:	8522                	mv	a0,s0
    80202dda:	6442                	ld	s0,16(sp)
    80202ddc:	60e2                	ld	ra,24(sp)
    80202dde:	64a2                	ld	s1,8(sp)
    80202de0:	6105                	addi	sp,sp,32
    80202de2:	b5f9                	j	80202cb0 <ireclaim>
    80202de4:	00004517          	auipc	a0,0x4
    80202de8:	7ac50513          	addi	a0,a0,1964 # 80207590 <etext+0x590>
    80202dec:	c64fd0ef          	jal	80200250 <panic>

0000000080202df0 <readi>:
    80202df0:	417c                	lw	a5,68(a0)
    80202df2:	0ed7e663          	bltu	a5,a3,80202ede <readi+0xee>
    80202df6:	715d                	addi	sp,sp,-80
    80202df8:	fc26                	sd	s1,56(sp)
    80202dfa:	f84a                	sd	s2,48(sp)
    80202dfc:	f44e                	sd	s3,40(sp)
    80202dfe:	e486                	sd	ra,72(sp)
    80202e00:	89ba                	mv	s3,a4
    80202e02:	9f35                	addw	a4,a4,a3
    80202e04:	84b6                	mv	s1,a3
    80202e06:	00d73933          	sltu	s2,a4,a3
    80202e0a:	0ad76863          	bltu	a4,a3,80202eba <readi+0xca>
    80202e0e:	e0a2                	sd	s0,64(sp)
    80202e10:	f052                	sd	s4,32(sp)
    80202e12:	ec56                	sd	s5,24(sp)
    80202e14:	8a2a                	mv	s4,a0
    80202e16:	8aae                	mv	s5,a1
    80202e18:	8432                	mv	s0,a2
    80202e1a:	00e7f463          	bgeu	a5,a4,80202e22 <readi+0x32>
    80202e1e:	40d789bb          	subw	s3,a5,a3
    80202e22:	0c098363          	beqz	s3,80202ee8 <readi+0xf8>
    80202e26:	e85a                	sd	s6,16(sp)
    80202e28:	e45e                	sd	s7,8(sp)
    80202e2a:	e062                	sd	s8,0(sp)
    80202e2c:	40000b13          	li	s6,1024
    80202e30:	00a4d59b          	srliw	a1,s1,0xa
    80202e34:	8552                	mv	a0,s4
    80202e36:	841ff0ef          	jal	80202676 <bmap>
    80202e3a:	0005059b          	sext.w	a1,a0
    80202e3e:	c1d5                	beqz	a1,80202ee2 <readi+0xf2>
    80202e40:	000a2503          	lw	a0,0(s4)
    80202e44:	aeeff0ef          	jal	80202132 <bread>
    80202e48:	3ff4f713          	andi	a4,s1,1023
    80202e4c:	40eb063b          	subw	a2,s6,a4
    80202e50:	412986bb          	subw	a3,s3,s2
    80202e54:	8bb2                	mv	s7,a2
    80202e56:	00c6f463          	bgeu	a3,a2,80202e5e <readi+0x6e>
    80202e5a:	00068b9b          	sext.w	s7,a3
    80202e5e:	080a9a63          	bnez	s5,80202ef2 <readi+0x102>
    80202e62:	060b8363          	beqz	s7,80202ec8 <readi+0xd8>
    80202e66:	020b9c13          	slli	s8,s7,0x20
    80202e6a:	020c5c13          	srli	s8,s8,0x20
    80202e6e:	008c06b3          	add	a3,s8,s0
    80202e72:	8822                	mv	a6,s0
    80202e74:	9f01                	subw	a4,a4,s0
    80202e76:	010707bb          	addw	a5,a4,a6
    80202e7a:	1782                	slli	a5,a5,0x20
    80202e7c:	9381                	srli	a5,a5,0x20
    80202e7e:	97aa                	add	a5,a5,a0
    80202e80:	0507c783          	lbu	a5,80(a5)
    80202e84:	0805                	addi	a6,a6,1
    80202e86:	fef80fa3          	sb	a5,-1(a6)
    80202e8a:	fed816e3          	bne	a6,a3,80202e76 <readi+0x86>
    80202e8e:	012b893b          	addw	s2,s7,s2
    80202e92:	baeff0ef          	jal	80202240 <brelse>
    80202e96:	009b84bb          	addw	s1,s7,s1
    80202e9a:	9462                	add	s0,s0,s8
    80202e9c:	f9396ae3          	bltu	s2,s3,80202e30 <readi+0x40>
    80202ea0:	854a                	mv	a0,s2
    80202ea2:	6406                	ld	s0,64(sp)
    80202ea4:	60a6                	ld	ra,72(sp)
    80202ea6:	7a02                	ld	s4,32(sp)
    80202ea8:	6ae2                	ld	s5,24(sp)
    80202eaa:	6b42                	ld	s6,16(sp)
    80202eac:	6ba2                	ld	s7,8(sp)
    80202eae:	6c02                	ld	s8,0(sp)
    80202eb0:	74e2                	ld	s1,56(sp)
    80202eb2:	7942                	ld	s2,48(sp)
    80202eb4:	79a2                	ld	s3,40(sp)
    80202eb6:	6161                	addi	sp,sp,80
    80202eb8:	8082                	ret
    80202eba:	4501                	li	a0,0
    80202ebc:	60a6                	ld	ra,72(sp)
    80202ebe:	74e2                	ld	s1,56(sp)
    80202ec0:	7942                	ld	s2,48(sp)
    80202ec2:	79a2                	ld	s3,40(sp)
    80202ec4:	6161                	addi	sp,sp,80
    80202ec6:	8082                	ret
    80202ec8:	4c01                	li	s8,0
    80202eca:	012b893b          	addw	s2,s7,s2
    80202ece:	b72ff0ef          	jal	80202240 <brelse>
    80202ed2:	009b84bb          	addw	s1,s7,s1
    80202ed6:	9462                	add	s0,s0,s8
    80202ed8:	f5396ce3          	bltu	s2,s3,80202e30 <readi+0x40>
    80202edc:	b7d1                	j	80202ea0 <readi+0xb0>
    80202ede:	4501                	li	a0,0
    80202ee0:	8082                	ret
    80202ee2:	0009051b          	sext.w	a0,s2
    80202ee6:	bf75                	j	80202ea2 <readi+0xb2>
    80202ee8:	6406                	ld	s0,64(sp)
    80202eea:	7a02                	ld	s4,32(sp)
    80202eec:	6ae2                	ld	s5,24(sp)
    80202eee:	4501                	li	a0,0
    80202ef0:	b7f1                	j	80202ebc <readi+0xcc>
    80202ef2:	00004517          	auipc	a0,0x4
    80202ef6:	6b650513          	addi	a0,a0,1718 # 802075a8 <etext+0x5a8>
    80202efa:	b56fd0ef          	jal	80200250 <panic>

0000000080202efe <writei>:
    80202efe:	417c                	lw	a5,68(a0)
    80202f00:	711d                	addi	sp,sp,-96
    80202f02:	ec86                	sd	ra,88(sp)
    80202f04:	e0ca                	sd	s2,64(sp)
    80202f06:	0ed7eb63          	bltu	a5,a3,80202ffc <writei+0xfe>
    80202f0a:	e4a6                	sd	s1,72(sp)
    80202f0c:	f852                	sd	s4,48(sp)
    80202f0e:	00e687bb          	addw	a5,a3,a4
    80202f12:	84b6                	mv	s1,a3
    80202f14:	8a3a                	mv	s4,a4
    80202f16:	00d7b933          	sltu	s2,a5,a3
    80202f1a:	0cd7ed63          	bltu	a5,a3,80202ff4 <writei+0xf6>
    80202f1e:	00043737          	lui	a4,0x43
    80202f22:	0cf76963          	bltu	a4,a5,80202ff4 <writei+0xf6>
    80202f26:	fc4e                	sd	s3,56(sp)
    80202f28:	89aa                	mv	s3,a0
    80202f2a:	0c0a0363          	beqz	s4,80202ff0 <writei+0xf2>
    80202f2e:	e8a2                	sd	s0,80(sp)
    80202f30:	f456                	sd	s5,40(sp)
    80202f32:	f05a                	sd	s6,32(sp)
    80202f34:	ec5e                	sd	s7,24(sp)
    80202f36:	e862                	sd	s8,16(sp)
    80202f38:	e466                	sd	s9,8(sp)
    80202f3a:	8aae                	mv	s5,a1
    80202f3c:	8432                	mv	s0,a2
    80202f3e:	40000b13          	li	s6,1024
    80202f42:	00a4d59b          	srliw	a1,s1,0xa
    80202f46:	854e                	mv	a0,s3
    80202f48:	f2eff0ef          	jal	80202676 <bmap>
    80202f4c:	0005059b          	sext.w	a1,a0
    80202f50:	c5b5                	beqz	a1,80202fbc <writei+0xbe>
    80202f52:	0009a503          	lw	a0,0(s3)
    80202f56:	9dcff0ef          	jal	80202132 <bread>
    80202f5a:	3ff4f713          	andi	a4,s1,1023
    80202f5e:	40eb063b          	subw	a2,s6,a4
    80202f62:	412a06bb          	subw	a3,s4,s2
    80202f66:	8c32                	mv	s8,a2
    80202f68:	8baa                	mv	s7,a0
    80202f6a:	00c6f463          	bgeu	a3,a2,80202f72 <writei+0x74>
    80202f6e:	00068c1b          	sext.w	s8,a3
    80202f72:	080a9763          	bnez	s5,80203000 <writei+0x102>
    80202f76:	060c0b63          	beqz	s8,80202fec <writei+0xee>
    80202f7a:	020c1c93          	slli	s9,s8,0x20
    80202f7e:	020cdc93          	srli	s9,s9,0x20
    80202f82:	008c86b3          	add	a3,s9,s0
    80202f86:	8822                	mv	a6,s0
    80202f88:	9f01                	subw	a4,a4,s0
    80202f8a:	010707bb          	addw	a5,a4,a6
    80202f8e:	00084883          	lbu	a7,0(a6)
    80202f92:	1782                	slli	a5,a5,0x20
    80202f94:	9381                	srli	a5,a5,0x20
    80202f96:	97de                	add	a5,a5,s7
    80202f98:	05178823          	sb	a7,80(a5)
    80202f9c:	0805                	addi	a6,a6,1
    80202f9e:	fed816e3          	bne	a6,a3,80202f8a <writei+0x8c>
    80202fa2:	855e                	mv	a0,s7
    80202fa4:	745000ef          	jal	80203ee8 <log_write>
    80202fa8:	855e                	mv	a0,s7
    80202faa:	012c093b          	addw	s2,s8,s2
    80202fae:	a92ff0ef          	jal	80202240 <brelse>
    80202fb2:	009c04bb          	addw	s1,s8,s1
    80202fb6:	9466                	add	s0,s0,s9
    80202fb8:	f94965e3          	bltu	s2,s4,80202f42 <writei+0x44>
    80202fbc:	0449a783          	lw	a5,68(s3)
    80202fc0:	0097f463          	bgeu	a5,s1,80202fc8 <writei+0xca>
    80202fc4:	0499a223          	sw	s1,68(s3)
    80202fc8:	6446                	ld	s0,80(sp)
    80202fca:	7aa2                	ld	s5,40(sp)
    80202fcc:	7b02                	ld	s6,32(sp)
    80202fce:	6be2                	ld	s7,24(sp)
    80202fd0:	6c42                	ld	s8,16(sp)
    80202fd2:	6ca2                	ld	s9,8(sp)
    80202fd4:	2901                	sext.w	s2,s2
    80202fd6:	854e                	mv	a0,s3
    80202fd8:	9fdff0ef          	jal	802029d4 <iupdate>
    80202fdc:	64a6                	ld	s1,72(sp)
    80202fde:	79e2                	ld	s3,56(sp)
    80202fe0:	7a42                	ld	s4,48(sp)
    80202fe2:	60e6                	ld	ra,88(sp)
    80202fe4:	854a                	mv	a0,s2
    80202fe6:	6906                	ld	s2,64(sp)
    80202fe8:	6125                	addi	sp,sp,96
    80202fea:	8082                	ret
    80202fec:	4c81                	li	s9,0
    80202fee:	bf55                	j	80202fa2 <writei+0xa4>
    80202ff0:	4901                	li	s2,0
    80202ff2:	b7d5                	j	80202fd6 <writei+0xd8>
    80202ff4:	64a6                	ld	s1,72(sp)
    80202ff6:	7a42                	ld	s4,48(sp)
    80202ff8:	597d                	li	s2,-1
    80202ffa:	b7e5                	j	80202fe2 <writei+0xe4>
    80202ffc:	597d                	li	s2,-1
    80202ffe:	b7d5                	j	80202fe2 <writei+0xe4>
    80203000:	00004517          	auipc	a0,0x4
    80203004:	5c850513          	addi	a0,a0,1480 # 802075c8 <etext+0x5c8>
    80203008:	a48fd0ef          	jal	80200250 <panic>

000000008020300c <namecmp>:
    8020300c:	4639                	li	a2,14
    8020300e:	de2fd06f          	j	802005f0 <strncmp>

0000000080203012 <dirlookup>:
    80203012:	03c51703          	lh	a4,60(a0)
    80203016:	7139                	addi	sp,sp,-64
    80203018:	fc06                	sd	ra,56(sp)
    8020301a:	f822                	sd	s0,48(sp)
    8020301c:	f426                	sd	s1,40(sp)
    8020301e:	f04a                	sd	s2,32(sp)
    80203020:	ec4e                	sd	s3,24(sp)
    80203022:	4785                	li	a5,1
    80203024:	06f71e63          	bne	a4,a5,802030a0 <dirlookup+0x8e>
    80203028:	417c                	lw	a5,68(a0)
    8020302a:	84aa                	mv	s1,a0
    8020302c:	892e                	mv	s2,a1
    8020302e:	89b2                	mv	s3,a2
    80203030:	4401                	li	s0,0
    80203032:	cb8d                	beqz	a5,80203064 <dirlookup+0x52>
    80203034:	4741                	li	a4,16
    80203036:	86a2                	mv	a3,s0
    80203038:	860a                	mv	a2,sp
    8020303a:	4581                	li	a1,0
    8020303c:	8526                	mv	a0,s1
    8020303e:	db3ff0ef          	jal	80202df0 <readi>
    80203042:	47c1                	li	a5,16
    80203044:	04f51863          	bne	a0,a5,80203094 <dirlookup+0x82>
    80203048:	00015783          	lhu	a5,0(sp)
    8020304c:	cb81                	beqz	a5,8020305c <dirlookup+0x4a>
    8020304e:	4639                	li	a2,14
    80203050:	00210593          	addi	a1,sp,2
    80203054:	854a                	mv	a0,s2
    80203056:	d9afd0ef          	jal	802005f0 <strncmp>
    8020305a:	cd09                	beqz	a0,80203074 <dirlookup+0x62>
    8020305c:	40fc                	lw	a5,68(s1)
    8020305e:	2441                	addiw	s0,s0,16
    80203060:	fcf46ae3          	bltu	s0,a5,80203034 <dirlookup+0x22>
    80203064:	70e2                	ld	ra,56(sp)
    80203066:	7442                	ld	s0,48(sp)
    80203068:	74a2                	ld	s1,40(sp)
    8020306a:	7902                	ld	s2,32(sp)
    8020306c:	69e2                	ld	s3,24(sp)
    8020306e:	4501                	li	a0,0
    80203070:	6121                	addi	sp,sp,64
    80203072:	8082                	ret
    80203074:	00098463          	beqz	s3,8020307c <dirlookup+0x6a>
    80203078:	0089a023          	sw	s0,0(s3)
    8020307c:	00015583          	lhu	a1,0(sp)
    80203080:	4088                	lw	a0,0(s1)
    80203082:	eecff0ef          	jal	8020276e <iget>
    80203086:	70e2                	ld	ra,56(sp)
    80203088:	7442                	ld	s0,48(sp)
    8020308a:	74a2                	ld	s1,40(sp)
    8020308c:	7902                	ld	s2,32(sp)
    8020308e:	69e2                	ld	s3,24(sp)
    80203090:	6121                	addi	sp,sp,64
    80203092:	8082                	ret
    80203094:	00004517          	auipc	a0,0x4
    80203098:	56c50513          	addi	a0,a0,1388 # 80207600 <etext+0x600>
    8020309c:	9b4fd0ef          	jal	80200250 <panic>
    802030a0:	00004517          	auipc	a0,0x4
    802030a4:	54850513          	addi	a0,a0,1352 # 802075e8 <etext+0x5e8>
    802030a8:	9a8fd0ef          	jal	80200250 <panic>

00000000802030ac <namex>:
    802030ac:	715d                	addi	sp,sp,-80
    802030ae:	e0a2                	sd	s0,64(sp)
    802030b0:	f052                	sd	s4,32(sp)
    802030b2:	ec56                	sd	s5,24(sp)
    802030b4:	e486                	sd	ra,72(sp)
    802030b6:	fc26                	sd	s1,56(sp)
    802030b8:	f84a                	sd	s2,48(sp)
    802030ba:	f44e                	sd	s3,40(sp)
    802030bc:	e85a                	sd	s6,16(sp)
    802030be:	e45e                	sd	s7,8(sp)
    802030c0:	e062                	sd	s8,0(sp)
    802030c2:	00054703          	lbu	a4,0(a0)
    802030c6:	02f00793          	li	a5,47
    802030ca:	842a                	mv	s0,a0
    802030cc:	8aae                	mv	s5,a1
    802030ce:	8a32                	mv	s4,a2
    802030d0:	12f70763          	beq	a4,a5,802031fe <namex+0x152>
    802030d4:	00005797          	auipc	a5,0x5
    802030d8:	7d47b783          	ld	a5,2004(a5) # 802088a8 <current_proc>
    802030dc:	1207b983          	ld	s3,288(a5)
    802030e0:	0000f517          	auipc	a0,0xf
    802030e4:	35050513          	addi	a0,a0,848 # 80212430 <itable>
    802030e8:	9b0fd0ef          	jal	80200298 <acquire>
    802030ec:	0089a783          	lw	a5,8(s3)
    802030f0:	0000f517          	auipc	a0,0xf
    802030f4:	34050513          	addi	a0,a0,832 # 80212430 <itable>
    802030f8:	2785                	addiw	a5,a5,1
    802030fa:	00f9a423          	sw	a5,8(s3)
    802030fe:	9acfd0ef          	jal	802002aa <release>
    80203102:	02f00493          	li	s1,47
    80203106:	4bb5                	li	s7,13
    80203108:	4b05                	li	s6,1
    8020310a:	00044783          	lbu	a5,0(s0)
    8020310e:	00979763          	bne	a5,s1,8020311c <namex+0x70>
    80203112:	00144783          	lbu	a5,1(s0)
    80203116:	0405                	addi	s0,s0,1
    80203118:	fe978de3          	beq	a5,s1,80203112 <namex+0x66>
    8020311c:	c3c5                	beqz	a5,802031bc <namex+0x110>
    8020311e:	00044783          	lbu	a5,0(s0)
    80203122:	8922                	mv	s2,s0
    80203124:	8c52                	mv	s8,s4
    80203126:	4601                	li	a2,0
    80203128:	08978263          	beq	a5,s1,802031ac <namex+0x100>
    8020312c:	c791                	beqz	a5,80203138 <namex+0x8c>
    8020312e:	00194783          	lbu	a5,1(s2)
    80203132:	0905                	addi	s2,s2,1
    80203134:	fe979ce3          	bne	a5,s1,8020312c <namex+0x80>
    80203138:	4089063b          	subw	a2,s2,s0
    8020313c:	06cbd663          	bge	s7,a2,802031a8 <namex+0xfc>
    80203140:	85a2                	mv	a1,s0
    80203142:	4639                	li	a2,14
    80203144:	8552                	mv	a0,s4
    80203146:	c5efd0ef          	jal	802005a4 <memmove>
    8020314a:	844a                	mv	s0,s2
    8020314c:	00094783          	lbu	a5,0(s2)
    80203150:	00979763          	bne	a5,s1,8020315e <namex+0xb2>
    80203154:	00144783          	lbu	a5,1(s0)
    80203158:	0405                	addi	s0,s0,1
    8020315a:	fe978de3          	beq	a5,s1,80203154 <namex+0xa8>
    8020315e:	854e                	mv	a0,s3
    80203160:	91dff0ef          	jal	80202a7c <ilock>
    80203164:	03c99783          	lh	a5,60(s3)
    80203168:	07679963          	bne	a5,s6,802031da <namex+0x12e>
    8020316c:	000a8563          	beqz	s5,80203176 <namex+0xca>
    80203170:	00044783          	lbu	a5,0(s0)
    80203174:	cbd9                	beqz	a5,8020320a <namex+0x15e>
    80203176:	4601                	li	a2,0
    80203178:	85d2                	mv	a1,s4
    8020317a:	854e                	mv	a0,s3
    8020317c:	e97ff0ef          	jal	80203012 <dirlookup>
    80203180:	892a                	mv	s2,a0
    80203182:	cd21                	beqz	a0,802031da <namex+0x12e>
    80203184:	01098c13          	addi	s8,s3,16
    80203188:	8562                	mv	a0,s8
    8020318a:	1ee000ef          	jal	80203378 <holdingsleep>
    8020318e:	cd41                	beqz	a0,80203226 <namex+0x17a>
    80203190:	0089a783          	lw	a5,8(s3)
    80203194:	08f05963          	blez	a5,80203226 <namex+0x17a>
    80203198:	8562                	mv	a0,s8
    8020319a:	1ae000ef          	jal	80203348 <releasesleep>
    8020319e:	854e                	mv	a0,s3
    802031a0:	a55ff0ef          	jal	80202bf4 <iput>
    802031a4:	89ca                	mv	s3,s2
    802031a6:	b795                	j	8020310a <namex+0x5e>
    802031a8:	00ca0c33          	add	s8,s4,a2
    802031ac:	85a2                	mv	a1,s0
    802031ae:	8552                	mv	a0,s4
    802031b0:	bf4fd0ef          	jal	802005a4 <memmove>
    802031b4:	844a                	mv	s0,s2
    802031b6:	000c0023          	sb	zero,0(s8)
    802031ba:	bf49                	j	8020314c <namex+0xa0>
    802031bc:	020a9c63          	bnez	s5,802031f4 <namex+0x148>
    802031c0:	60a6                	ld	ra,72(sp)
    802031c2:	6406                	ld	s0,64(sp)
    802031c4:	74e2                	ld	s1,56(sp)
    802031c6:	7942                	ld	s2,48(sp)
    802031c8:	7a02                	ld	s4,32(sp)
    802031ca:	6ae2                	ld	s5,24(sp)
    802031cc:	6b42                	ld	s6,16(sp)
    802031ce:	6ba2                	ld	s7,8(sp)
    802031d0:	6c02                	ld	s8,0(sp)
    802031d2:	854e                	mv	a0,s3
    802031d4:	79a2                	ld	s3,40(sp)
    802031d6:	6161                	addi	sp,sp,80
    802031d8:	8082                	ret
    802031da:	01098413          	addi	s0,s3,16
    802031de:	8522                	mv	a0,s0
    802031e0:	198000ef          	jal	80203378 <holdingsleep>
    802031e4:	c129                	beqz	a0,80203226 <namex+0x17a>
    802031e6:	0089a783          	lw	a5,8(s3)
    802031ea:	02f05e63          	blez	a5,80203226 <namex+0x17a>
    802031ee:	8522                	mv	a0,s0
    802031f0:	158000ef          	jal	80203348 <releasesleep>
    802031f4:	854e                	mv	a0,s3
    802031f6:	9ffff0ef          	jal	80202bf4 <iput>
    802031fa:	4981                	li	s3,0
    802031fc:	b7d1                	j	802031c0 <namex+0x114>
    802031fe:	4585                	li	a1,1
    80203200:	4505                	li	a0,1
    80203202:	d6cff0ef          	jal	8020276e <iget>
    80203206:	89aa                	mv	s3,a0
    80203208:	bded                	j	80203102 <namex+0x56>
    8020320a:	01098413          	addi	s0,s3,16
    8020320e:	8522                	mv	a0,s0
    80203210:	168000ef          	jal	80203378 <holdingsleep>
    80203214:	c909                	beqz	a0,80203226 <namex+0x17a>
    80203216:	0089a783          	lw	a5,8(s3)
    8020321a:	00f05663          	blez	a5,80203226 <namex+0x17a>
    8020321e:	8522                	mv	a0,s0
    80203220:	128000ef          	jal	80203348 <releasesleep>
    80203224:	bf71                	j	802031c0 <namex+0x114>
    80203226:	00004517          	auipc	a0,0x4
    8020322a:	34250513          	addi	a0,a0,834 # 80207568 <etext+0x568>
    8020322e:	822fd0ef          	jal	80200250 <panic>

0000000080203232 <dirlink>:
    80203232:	7139                	addi	sp,sp,-64
    80203234:	f04a                	sd	s2,32(sp)
    80203236:	8932                	mv	s2,a2
    80203238:	4601                	li	a2,0
    8020323a:	f426                	sd	s1,40(sp)
    8020323c:	ec4e                	sd	s3,24(sp)
    8020323e:	fc06                	sd	ra,56(sp)
    80203240:	84aa                	mv	s1,a0
    80203242:	89ae                	mv	s3,a1
    80203244:	dcfff0ef          	jal	80203012 <dirlookup>
    80203248:	e135                	bnez	a0,802032ac <dirlink+0x7a>
    8020324a:	f822                	sd	s0,48(sp)
    8020324c:	40e0                	lw	s0,68(s1)
    8020324e:	c405                	beqz	s0,80203276 <dirlink+0x44>
    80203250:	4401                	li	s0,0
    80203252:	a029                	j	8020325c <dirlink+0x2a>
    80203254:	40fc                	lw	a5,68(s1)
    80203256:	2441                	addiw	s0,s0,16
    80203258:	00f47f63          	bgeu	s0,a5,80203276 <dirlink+0x44>
    8020325c:	4741                	li	a4,16
    8020325e:	86a2                	mv	a3,s0
    80203260:	860a                	mv	a2,sp
    80203262:	4581                	li	a1,0
    80203264:	8526                	mv	a0,s1
    80203266:	b8bff0ef          	jal	80202df0 <readi>
    8020326a:	47c1                	li	a5,16
    8020326c:	04f51463          	bne	a0,a5,802032b4 <dirlink+0x82>
    80203270:	00015783          	lhu	a5,0(sp)
    80203274:	f3e5                	bnez	a5,80203254 <dirlink+0x22>
    80203276:	4639                	li	a2,14
    80203278:	85ce                	mv	a1,s3
    8020327a:	00210513          	addi	a0,sp,2
    8020327e:	b9afd0ef          	jal	80200618 <strncpy>
    80203282:	86a2                	mv	a3,s0
    80203284:	4741                	li	a4,16
    80203286:	860a                	mv	a2,sp
    80203288:	4581                	li	a1,0
    8020328a:	8526                	mv	a0,s1
    8020328c:	01211023          	sh	s2,0(sp)
    80203290:	c6fff0ef          	jal	80202efe <writei>
    80203294:	1541                	addi	a0,a0,-16
    80203296:	7442                	ld	s0,48(sp)
    80203298:	00a03533          	snez	a0,a0
    8020329c:	40a00533          	neg	a0,a0
    802032a0:	70e2                	ld	ra,56(sp)
    802032a2:	74a2                	ld	s1,40(sp)
    802032a4:	7902                	ld	s2,32(sp)
    802032a6:	69e2                	ld	s3,24(sp)
    802032a8:	6121                	addi	sp,sp,64
    802032aa:	8082                	ret
    802032ac:	949ff0ef          	jal	80202bf4 <iput>
    802032b0:	557d                	li	a0,-1
    802032b2:	b7fd                	j	802032a0 <dirlink+0x6e>
    802032b4:	00004517          	auipc	a0,0x4
    802032b8:	35c50513          	addi	a0,a0,860 # 80207610 <etext+0x610>
    802032bc:	f95fc0ef          	jal	80200250 <panic>

00000000802032c0 <namei>:
    802032c0:	1101                	addi	sp,sp,-32
    802032c2:	860a                	mv	a2,sp
    802032c4:	4581                	li	a1,0
    802032c6:	ec06                	sd	ra,24(sp)
    802032c8:	de5ff0ef          	jal	802030ac <namex>
    802032cc:	60e2                	ld	ra,24(sp)
    802032ce:	6105                	addi	sp,sp,32
    802032d0:	8082                	ret

00000000802032d2 <nameiparent>:
    802032d2:	862e                	mv	a2,a1
    802032d4:	4585                	li	a1,1
    802032d6:	bbd9                	j	802030ac <namex>

00000000802032d8 <initsleeplock>:
    802032d8:	1101                	addi	sp,sp,-32
    802032da:	e822                	sd	s0,16(sp)
    802032dc:	e426                	sd	s1,8(sp)
    802032de:	842a                	mv	s0,a0
    802032e0:	84ae                	mv	s1,a1
    802032e2:	0521                	addi	a0,a0,8
    802032e4:	00004597          	auipc	a1,0x4
    802032e8:	33c58593          	addi	a1,a1,828 # 80207620 <etext+0x620>
    802032ec:	ec06                	sd	ra,24(sp)
    802032ee:	fa3fc0ef          	jal	80200290 <initlock>
    802032f2:	60e2                	ld	ra,24(sp)
    802032f4:	ec04                	sd	s1,24(s0)
    802032f6:	00042023          	sw	zero,0(s0)
    802032fa:	02042023          	sw	zero,32(s0)
    802032fe:	6442                	ld	s0,16(sp)
    80203300:	64a2                	ld	s1,8(sp)
    80203302:	6105                	addi	sp,sp,32
    80203304:	8082                	ret

0000000080203306 <acquiresleep>:
    80203306:	1101                	addi	sp,sp,-32
    80203308:	e426                	sd	s1,8(sp)
    8020330a:	00850493          	addi	s1,a0,8
    8020330e:	e822                	sd	s0,16(sp)
    80203310:	842a                	mv	s0,a0
    80203312:	8526                	mv	a0,s1
    80203314:	ec06                	sd	ra,24(sp)
    80203316:	f83fc0ef          	jal	80200298 <acquire>
    8020331a:	401c                	lw	a5,0(s0)
    8020331c:	c799                	beqz	a5,8020332a <acquiresleep+0x24>
    8020331e:	85a6                	mv	a1,s1
    80203320:	8522                	mv	a0,s0
    80203322:	f56fe0ef          	jal	80201a78 <sleep>
    80203326:	401c                	lw	a5,0(s0)
    80203328:	fbfd                	bnez	a5,8020331e <acquiresleep+0x18>
    8020332a:	00005797          	auipc	a5,0x5
    8020332e:	57e7b783          	ld	a5,1406(a5) # 802088a8 <current_proc>
    80203332:	4b9c                	lw	a5,16(a5)
    80203334:	4705                	li	a4,1
    80203336:	c018                	sw	a4,0(s0)
    80203338:	d01c                	sw	a5,32(s0)
    8020333a:	6442                	ld	s0,16(sp)
    8020333c:	60e2                	ld	ra,24(sp)
    8020333e:	8526                	mv	a0,s1
    80203340:	64a2                	ld	s1,8(sp)
    80203342:	6105                	addi	sp,sp,32
    80203344:	f67fc06f          	j	802002aa <release>

0000000080203348 <releasesleep>:
    80203348:	1101                	addi	sp,sp,-32
    8020334a:	e426                	sd	s1,8(sp)
    8020334c:	00850493          	addi	s1,a0,8
    80203350:	e822                	sd	s0,16(sp)
    80203352:	842a                	mv	s0,a0
    80203354:	8526                	mv	a0,s1
    80203356:	ec06                	sd	ra,24(sp)
    80203358:	f41fc0ef          	jal	80200298 <acquire>
    8020335c:	8522                	mv	a0,s0
    8020335e:	00042023          	sw	zero,0(s0)
    80203362:	02042023          	sw	zero,32(s0)
    80203366:	89bfe0ef          	jal	80201c00 <wakeup>
    8020336a:	6442                	ld	s0,16(sp)
    8020336c:	60e2                	ld	ra,24(sp)
    8020336e:	8526                	mv	a0,s1
    80203370:	64a2                	ld	s1,8(sp)
    80203372:	6105                	addi	sp,sp,32
    80203374:	f37fc06f          	j	802002aa <release>

0000000080203378 <holdingsleep>:
    80203378:	1101                	addi	sp,sp,-32
    8020337a:	e426                	sd	s1,8(sp)
    8020337c:	00850493          	addi	s1,a0,8
    80203380:	e822                	sd	s0,16(sp)
    80203382:	842a                	mv	s0,a0
    80203384:	8526                	mv	a0,s1
    80203386:	ec06                	sd	ra,24(sp)
    80203388:	f11fc0ef          	jal	80200298 <acquire>
    8020338c:	401c                	lw	a5,0(s0)
    8020338e:	c785                	beqz	a5,802033b6 <holdingsleep+0x3e>
    80203390:	00005797          	auipc	a5,0x5
    80203394:	5187b783          	ld	a5,1304(a5) # 802088a8 <current_proc>
    80203398:	4b9c                	lw	a5,16(a5)
    8020339a:	5018                	lw	a4,32(s0)
    8020339c:	40e78433          	sub	s0,a5,a4
    802033a0:	00143413          	seqz	s0,s0
    802033a4:	8526                	mv	a0,s1
    802033a6:	f05fc0ef          	jal	802002aa <release>
    802033aa:	60e2                	ld	ra,24(sp)
    802033ac:	8522                	mv	a0,s0
    802033ae:	6442                	ld	s0,16(sp)
    802033b0:	64a2                	ld	s1,8(sp)
    802033b2:	6105                	addi	sp,sp,32
    802033b4:	8082                	ret
    802033b6:	4401                	li	s0,0
    802033b8:	b7f5                	j	802033a4 <holdingsleep+0x2c>

00000000802033ba <create>:
    802033ba:	715d                	addi	sp,sp,-80
    802033bc:	f84a                	sd	s2,48(sp)
    802033be:	892e                	mv	s2,a1
    802033c0:	858a                	mv	a1,sp
    802033c2:	f44e                	sd	s3,40(sp)
    802033c4:	f052                	sd	s4,32(sp)
    802033c6:	e486                	sd	ra,72(sp)
    802033c8:	e0a2                	sd	s0,64(sp)
    802033ca:	8a32                	mv	s4,a2
    802033cc:	89b6                	mv	s3,a3
    802033ce:	f05ff0ef          	jal	802032d2 <nameiparent>
    802033d2:	c931                	beqz	a0,80203426 <create+0x6c>
    802033d4:	fc26                	sd	s1,56(sp)
    802033d6:	84aa                	mv	s1,a0
    802033d8:	ea4ff0ef          	jal	80202a7c <ilock>
    802033dc:	4601                	li	a2,0
    802033de:	858a                	mv	a1,sp
    802033e0:	8526                	mv	a0,s1
    802033e2:	c31ff0ef          	jal	80203012 <dirlookup>
    802033e6:	842a                	mv	s0,a0
    802033e8:	c921                	beqz	a0,80203438 <create+0x7e>
    802033ea:	8526                	mv	a0,s1
    802033ec:	889ff0ef          	jal	80202c74 <iunlockput>
    802033f0:	8522                	mv	a0,s0
    802033f2:	e8aff0ef          	jal	80202a7c <ilock>
    802033f6:	4789                	li	a5,2
    802033f8:	02f91363          	bne	s2,a5,8020341e <create+0x64>
    802033fc:	03c45783          	lhu	a5,60(s0)
    80203400:	4705                	li	a4,1
    80203402:	37f9                	addiw	a5,a5,-2
    80203404:	17c2                	slli	a5,a5,0x30
    80203406:	93c1                	srli	a5,a5,0x30
    80203408:	00f76b63          	bltu	a4,a5,8020341e <create+0x64>
    8020340c:	60a6                	ld	ra,72(sp)
    8020340e:	8522                	mv	a0,s0
